0001   0000             "TASMSOL"
TASM1.TAB line 0001: unrecognized directive.            ("TASMSOL")
0002   0000             .ALTWILD
TASM1.TAB line 0002: unrecognized directive.            (.ALTWILD)
0003   0000             
0004   0000             ESC ""                          FD    1    NOP      1
TASM1.TAB line 0004: Label not found: (ESC)
TASM1.TAB line 0004: label value misalligned.           (ESC)
TASM1.TAB line 0004: unrecognized directive.            (ESC)
0005   0000             SETPTB ""                       01    1    NOP      1
TASM1.TAB line 0005: Label not found: (SETPTB)
TASM1.TAB line 0005: label value misalligned.           (SETPTB)
TASM1.TAB line 0005: unrecognized directive.            (SETPTB)
0006   0000             PAGEMAP ""                      02    1    NOP      1
TASM1.TAB line 0006: Label not found: (PAGEMAP)
TASM1.TAB line 0006: label value misalligned.           (PAGEMAP)
TASM1.TAB line 0006: unrecognized directive.            (PAGEMAP)
0007   0000             STORE ""                        03    1    NOP      1
TASM1.TAB line 0007: Label not found: (STORE)
TASM1.TAB line 0007: label value misalligned.           (STORE)
TASM1.TAB line 0007: unrecognized directive.            (STORE)
0008   0000             LOAD ""                         04    1    NOP      1
TASM1.TAB line 0008: Label not found: (LOAD)
TASM1.TAB line 0008: label value misalligned.           (LOAD)
TASM1.TAB line 0008: unrecognized directive.            (LOAD)
0009   0000             SYSCALL @                       05    2    NOP      1
TASM1.TAB line 0009: Label not found: (SYSCALL)
TASM1.TAB line 0009: label value misalligned.           (SYSCALL)
TASM1.TAB line 0009: unrecognized directive.            (SYSCALL)
0010   0000             SYSRET ""                       06    1    NOP      1
TASM1.TAB line 0010: Label not found: (SYSRET)
TASM1.TAB line 0010: label value misalligned.           (SYSRET)
TASM1.TAB line 0010: unrecognized directive.            (SYSRET)
0011   0000             CALL A                          08    1    NOP      1
TASM1.TAB line 0011: Label not found: (CALL)
TASM1.TAB line 0011: label value misalligned.           (CALL)
TASM1.TAB line 0011: unrecognized instruction.          (CALL)
0012   0000             CALL [A+@]                      07FD  4    NOP      1
TASM1.TAB line 0012: Label not found: (CALL)
TASM1.TAB line 0012: label value misalligned.           (CALL)
TASM1.TAB line 0012: unrecognized directive.            (CALL)
0013   0000             CALL @                          07    3    NOP      1
TASM1.TAB line 0013: Label not found: (CALL)
TASM1.TAB line 0013: label value misalligned.           (CALL)
TASM1.TAB line 0013: unrecognized directive.            (CALL)
0014   0000             RET  ""                         09    1    NOP      1
TASM1.TAB line 0014: Label not found: (RET)
TASM1.TAB line 0014: label value misalligned.           (RET)
TASM1.TAB line 0014: unrecognized directive.            (RET)
0015   0000             JMP A                           0B    1    NOP      1
TASM1.TAB line 0015: Label not found: (JMP)
TASM1.TAB line 0015: label value misalligned.           (JMP)
TASM1.TAB line 0015: unrecognized instruction.          (JMP)
0016   0000             JMP [@+AL]                      0AFD  4    NOP      1
TASM1.TAB line 0016: Label not found: (JMP)
TASM1.TAB line 0016: label value misalligned.           (JMP)
TASM1.TAB line 0016: unrecognized directive.            (JMP)
0017   0000             JMP [@+BL]                      0BFD  4    NOP      1
TASM1.TAB line 0017: Label not found: (JMP)
TASM1.TAB line 0017: label value misalligned.           (JMP)
TASM1.TAB line 0017: unrecognized directive.            (JMP)
0018   0000             JMP @                           0A    3    NOP      1
TASM1.TAB line 0018: Label not found: (JMP)
TASM1.TAB line 0018: label value misalligned.           (JMP)
TASM1.TAB line 0018: unrecognized directive.            (JMP)
0019   0000             LODSTAT ""                      0C    1    NOP      1
TASM1.TAB line 0019: Label not found: (LODSTAT)
TASM1.TAB line 0019: label value misalligned.           (LODSTAT)
TASM1.TAB line 0019: unrecognized directive.            (LODSTAT)
0020   0000             STOSTAT ""                      0D    1    NOP      1
TASM1.TAB line 0020: Label not found: (STOSTAT)
TASM1.TAB line 0020: label value misalligned.           (STOSTAT)
TASM1.TAB line 0020: unrecognized directive.            (STOSTAT)
0021   0000             LODFLGS ""                      0E    1    NOP      1        
TASM1.TAB line 0021: Label not found: (LODFLGS)
TASM1.TAB line 0021: label value misalligned.           (LODFLGS)
TASM1.TAB line 0021: unrecognized directive.            (LODFLGS)
0022   0000             STOFLGS ""                      0F    1    NOP      1
TASM1.TAB line 0022: Label not found: (STOFLGS)
TASM1.TAB line 0022: label value misalligned.           (STOFLGS)
TASM1.TAB line 0022: unrecognized directive.            (STOFLGS)
0023   0000             LODMSK ""                       0EFD  2    NOP      1
TASM1.TAB line 0023: Label not found: (LODMSK)
TASM1.TAB line 0023: label value misalligned.           (LODMSK)
TASM1.TAB line 0023: unrecognized directive.            (LODMSK)
0024   0000             STOMSK ""                       0FFD  2    NOP      1
TASM1.TAB line 0024: Label not found: (STOMSK)
TASM1.TAB line 0024: label value misalligned.           (STOMSK)
TASM1.TAB line 0024: unrecognized directive.            (STOMSK)
0025   0000             
0026   0000             NOP ""                          FE    1    NOP      1
TASM1.TAB line 0026: Label not found: (NOP)
TASM1.TAB line 0026: label value misalligned.           (NOP)
TASM1.TAB line 0026: unrecognized directive.            (NOP)
0027   0000             HALT ""                         FF    1    NOP      1
TASM1.TAB line 0027: Label not found: (HALT)
TASM1.TAB line 0027: label value misalligned.           (HALT)
TASM1.TAB line 0027: unrecognized directive.            (HALT)
0028   0000             ENTER @                         F8    3    NOP      1
TASM1.TAB line 0028: Label not found: (ENTER)
TASM1.TAB line 0028: label value misalligned.           (ENTER)
TASM1.TAB line 0028: unrecognized directive.            (ENTER)
0029   0000             LEAVE ""                        F9    1    NOP      1  
TASM1.TAB line 0029: Label not found: (LEAVE)
TASM1.TAB line 0029: label value misalligned.           (LEAVE)
TASM1.TAB line 0029: unrecognized directive.            (LEAVE)
0030   0000             SUPCPY ""                       08FD  2    NOP      1
TASM1.TAB line 0030: Label not found: (SUPCPY)
TASM1.TAB line 0030: label value misalligned.           (SUPCPY)
TASM1.TAB line 0030: unrecognized directive.            (SUPCPY)
0031   0000             
0032   0000             LEA D,[SP+@]                    FAFD  4    NOP      1
TASM1.TAB line 0032: Label not found: (LEA)
TASM1.TAB line 0032: label value misalligned.           (LEA)
TASM1.TAB line 0032: unrecognized instruction.          (LEA)
0033   0000             LEA D,[BP+@]                    FA    3    NOP      1
TASM1.TAB line 0033: Label not found: (LEA)
TASM1.TAB line 0033: label value misalligned.           (LEA)
TASM1.TAB line 0033: unrecognized instruction.          (LEA)
0034   0000             LEA D,[SI+@]                    FB    3    NOP      1
TASM1.TAB line 0034: Label not found: (LEA)
TASM1.TAB line 0034: label value misalligned.           (LEA)
TASM1.TAB line 0034: unrecognized instruction.          (LEA)
0035   0000             LEA D,[DI+@]                    FC    3    NOP      1
TASM1.TAB line 0035: Label not found: (LEA)
TASM1.TAB line 0035: label value misalligned.           (LEA)
TASM1.TAB line 0035: unrecognized instruction.          (LEA)
0036   0000             LEA D,[@+A*2^+@+B]              F9FD  5    COMBINE  1
TASM1.TAB line 0036: Label not found: (LEA)
TASM1.TAB line 0036: label value misalligned.           (LEA)
TASM1.TAB line 0036: unrecognized instruction.          (LEA)
0037   0000             LEA D,[BP+A*2^+@+B]             F9FD  5    COMBINE  1
TASM1.TAB line 0037: Label not found: (LEA)
TASM1.TAB line 0037: label value misalligned.           (LEA)
TASM1.TAB line 0037: unrecognized instruction.          (LEA)
0038   0000             
0039   0000             MOV A,SI                        4E    1    NOP     1
TASM1.TAB line 0039: Label not found: (MOV)
TASM1.TAB line 0039: label value misalligned.           (MOV)
TASM1.TAB line 0039: unrecognized instruction.          (MOV)
0040   0000             MOV A,DI                        50    1    NOP     1
TASM1.TAB line 0040: Label not found: (MOV)
TASM1.TAB line 0040: label value misalligned.           (MOV)
TASM1.TAB line 0040: unrecognized instruction.          (MOV)
0041   0000             MOV A,BP                        4A    1    NOP     1
TASM1.TAB line 0041: Label not found: (MOV)
TASM1.TAB line 0041: label value misalligned.           (MOV)
TASM1.TAB line 0041: unrecognized instruction.          (MOV)
0042   0000             MOV A,SP                        48    1    NOP     1
TASM1.TAB line 0042: Label not found: (MOV)
TASM1.TAB line 0042: label value misalligned.           (MOV)
TASM1.TAB line 0042: unrecognized instruction.          (MOV)
0043   0000             MOV A,PC                        11FD  2    NOP     1
TASM1.TAB line 0043: Label not found: (MOV)
TASM1.TAB line 0043: label value misalligned.           (MOV)
TASM1.TAB line 0043: unrecognized instruction.          (MOV)
0044   0000             MOV A,B                         11    1    NOP     1
TASM1.TAB line 0044: Label not found: (MOV)
TASM1.TAB line 0044: label value misalligned.           (MOV)
TASM1.TAB line 0044: unrecognized instruction.          (MOV)
0045   0000             MOV A,C                         12    1    NOP     1
TASM1.TAB line 0045: Label not found: (MOV)
TASM1.TAB line 0045: label value misalligned.           (MOV)
TASM1.TAB line 0045: unrecognized instruction.          (MOV)
0046   0000             MOV A,D                         13    1    NOP     1
TASM1.TAB line 0046: Label not found: (MOV)
TASM1.TAB line 0046: label value misalligned.           (MOV)
TASM1.TAB line 0046: unrecognized instruction.          (MOV)
0047   0000             MOV A,G                         12FD  2    NOP     1
TASM1.TAB line 0047: Label not found: (MOV)
TASM1.TAB line 0047: label value misalligned.           (MOV)
TASM1.TAB line 0047: unrecognized instruction.          (MOV)
0048   0000             MOV A,[D]                       15    1    NOP     1
TASM1.TAB line 0048: Label not found: (MOV)
TASM1.TAB line 0048: label value misalligned.           (MOV)
TASM1.TAB line 0048: unrecognized instruction.          (MOV)
0049   0000             MOV A,[A+@]                     B7    3    NOP     1
TASM1.TAB line 0049: Label not found: (MOV)
TASM1.TAB line 0049: label value misalligned.           (MOV)
TASM1.TAB line 0049: unrecognized instruction.          (MOV)
0050   0000             MOV A,[@+A]                     B7    3    NOP     1
TASM1.TAB line 0050: Label not found: (MOV)
TASM1.TAB line 0050: label value misalligned.           (MOV)
TASM1.TAB line 0050: unrecognized instruction.          (MOV)
0051   0000             MOV A,[D+@]                     16    3    NOP     1
TASM1.TAB line 0051: Label not found: (MOV)
TASM1.TAB line 0051: label value misalligned.           (MOV)
TASM1.TAB line 0051: unrecognized instruction.          (MOV)
0052   0000             MOV A,[BP+D]                    18    1    NOP     1
TASM1.TAB line 0052: Label not found: (MOV)
TASM1.TAB line 0052: label value misalligned.           (MOV)
TASM1.TAB line 0052: unrecognized instruction.          (MOV)
0053   0000             MOV A,[BP+@]                    17    3    NOP     1
TASM1.TAB line 0053: Label not found: (MOV)
TASM1.TAB line 0053: label value misalligned.           (MOV)
TASM1.TAB line 0053: unrecognized instruction.          (MOV)
0054   0000             MOV A,[SP+D]                    18FD  2    NOP     1
TASM1.TAB line 0054: Label not found: (MOV)
TASM1.TAB line 0054: label value misalligned.           (MOV)
TASM1.TAB line 0054: unrecognized instruction.          (MOV)
0055   0000             MOV A,[SP+@]                    17FD  4    NOP     1
TASM1.TAB line 0055: Label not found: (MOV)
TASM1.TAB line 0055: label value misalligned.           (MOV)
TASM1.TAB line 0055: unrecognized instruction.          (MOV)
0056   0000             MOV A,[@]                       14    3    NOP     1
TASM1.TAB line 0056: Label not found: (MOV)
TASM1.TAB line 0056: label value misalligned.           (MOV)
TASM1.TAB line 0056: unrecognized instruction.          (MOV)
0057   0000             MOV A,@                         10    3    NOP     1
TASM1.TAB line 0057: Label not found: (MOV)
TASM1.TAB line 0057: label value misalligned.           (MOV)
TASM1.TAB line 0057: unrecognized instruction.          (MOV)
0058   0000             MOV AL,AH                       1A    1    NOP     1
TASM1.TAB line 0058: Label not found: (MOV)
TASM1.TAB line 0058: label value misalligned.           (MOV)
TASM1.TAB line 0058: unrecognized instruction.          (MOV)
0059   0000             MOV AL,BL                       1B    1    NOP     1
TASM1.TAB line 0059: Label not found: (MOV)
TASM1.TAB line 0059: label value misalligned.           (MOV)
TASM1.TAB line 0059: unrecognized instruction.          (MOV)
0060   0000             MOV AL,BH                       1C    1    NOP     1
TASM1.TAB line 0060: Label not found: (MOV)
TASM1.TAB line 0060: label value misalligned.           (MOV)
TASM1.TAB line 0060: unrecognized instruction.          (MOV)
0061   0000             MOV AL,CL                       84    1    NOP     1
TASM1.TAB line 0061: Label not found: (MOV)
TASM1.TAB line 0061: label value misalligned.           (MOV)
TASM1.TAB line 0061: unrecognized instruction.          (MOV)
0062   0000             MOV AL,CH                       A8    1    NOP     1
TASM1.TAB line 0062: Label not found: (MOV)
TASM1.TAB line 0062: label value misalligned.           (MOV)
TASM1.TAB line 0062: unrecognized instruction.          (MOV)
0063   0000             MOV AL,GL                       1AFD  2    NOP     1
TASM1.TAB line 0063: Label not found: (MOV)
TASM1.TAB line 0063: label value misalligned.           (MOV)
TASM1.TAB line 0063: unrecognized instruction.          (MOV)
0064   0000             MOV AL,GH                       1BFD  2    NOP     1
TASM1.TAB line 0064: Label not found: (MOV)
TASM1.TAB line 0064: label value misalligned.           (MOV)
TASM1.TAB line 0064: unrecognized instruction.          (MOV)
0065   0000             MOV AL,[D]                      1E    1    NOP     1
TASM1.TAB line 0065: Label not found: (MOV)
TASM1.TAB line 0065: label value misalligned.           (MOV)
TASM1.TAB line 0065: unrecognized instruction.          (MOV)
0066   0000             MOV AL,[D+@]                    1F    3    NOP     1
TASM1.TAB line 0066: Label not found: (MOV)
TASM1.TAB line 0066: label value misalligned.           (MOV)
TASM1.TAB line 0066: unrecognized instruction.          (MOV)
0067   0000             MOV AL,[BP+@]                   20    3    NOP     1
TASM1.TAB line 0067: Label not found: (MOV)
TASM1.TAB line 0067: label value misalligned.           (MOV)
TASM1.TAB line 0067: unrecognized instruction.          (MOV)
0068   0000             MOV AL,[BP+D]                   21    1    NOP     1
TASM1.TAB line 0068: Label not found: (MOV)
TASM1.TAB line 0068: label value misalligned.           (MOV)
TASM1.TAB line 0068: unrecognized instruction.          (MOV)
0069   0000             MOV AL,[SP+D]                   21FD  2    NOP     1
TASM1.TAB line 0069: Label not found: (MOV)
TASM1.TAB line 0069: label value misalligned.           (MOV)
TASM1.TAB line 0069: unrecognized instruction.          (MOV)
0070   0000             MOV AL,[SP+@]                   20FD  4    NOP     1
TASM1.TAB line 0070: Label not found: (MOV)
TASM1.TAB line 0070: label value misalligned.           (MOV)
TASM1.TAB line 0070: unrecognized instruction.          (MOV)
0071   0000             MOV AL,[@]                      1D    3    NOP     1
TASM1.TAB line 0071: Label not found: (MOV)
TASM1.TAB line 0071: label value misalligned.           (MOV)
TASM1.TAB line 0071: unrecognized instruction.          (MOV)
0072   0000             MOV AL,@                        19    2    NOP     1
TASM1.TAB line 0072: Label not found: (MOV)
TASM1.TAB line 0072: label value misalligned.           (MOV)
TASM1.TAB line 0072: unrecognized instruction.          (MOV)
0073   0000             MOV AH,AL                       23    1    NOP     1
TASM1.TAB line 0073: Label not found: (MOV)
TASM1.TAB line 0073: label value misalligned.           (MOV)
TASM1.TAB line 0073: unrecognized instruction.          (MOV)
0074   0000             MOV AH,BL                       24    1    NOP     1
TASM1.TAB line 0074: Label not found: (MOV)
TASM1.TAB line 0074: label value misalligned.           (MOV)
TASM1.TAB line 0074: unrecognized instruction.          (MOV)
0075   0000             MOV AH,BH                       25    1    NOP     1
TASM1.TAB line 0075: Label not found: (MOV)
TASM1.TAB line 0075: label value misalligned.           (MOV)
TASM1.TAB line 0075: unrecognized instruction.          (MOV)
0076   0000             MOV AH,GL                       23FD  2    NOP     1
TASM1.TAB line 0076: Label not found: (MOV)
TASM1.TAB line 0076: label value misalligned.           (MOV)
TASM1.TAB line 0076: unrecognized instruction.          (MOV)
0077   0000             MOV AH,GH                       24FD  2    NOP     1
TASM1.TAB line 0077: Label not found: (MOV)
TASM1.TAB line 0077: label value misalligned.           (MOV)
TASM1.TAB line 0077: unrecognized instruction.          (MOV)
0078   0000             MOV AH,@                        22    2    NOP     1
TASM1.TAB line 0078: Label not found: (MOV)
TASM1.TAB line 0078: label value misalligned.           (MOV)
TASM1.TAB line 0078: unrecognized instruction.          (MOV)
0079   0000             MOV B,A                         27    1    NOP     1
TASM1.TAB line 0079: Label not found: (MOV)
TASM1.TAB line 0079: label value misalligned.           (MOV)
TASM1.TAB line 0079: unrecognized instruction.          (MOV)
0080   0000             MOV B,C                         28    1    NOP     1
TASM1.TAB line 0080: Label not found: (MOV)
TASM1.TAB line 0080: label value misalligned.           (MOV)
TASM1.TAB line 0080: unrecognized instruction.          (MOV)
0081   0000             MOV B,D                         2D    1    NOP     1
TASM1.TAB line 0081: Label not found: (MOV)
TASM1.TAB line 0081: label value misalligned.           (MOV)
TASM1.TAB line 0081: unrecognized instruction.          (MOV)
0082   0000             MOV B,G                         27FD  2    NOP     1
TASM1.TAB line 0082: Label not found: (MOV)
TASM1.TAB line 0082: label value misalligned.           (MOV)
TASM1.TAB line 0082: unrecognized instruction.          (MOV)
0083   0000             MOV B,[D]                       2A    1    NOP     1
TASM1.TAB line 0083: Label not found: (MOV)
TASM1.TAB line 0083: label value misalligned.           (MOV)
TASM1.TAB line 0083: unrecognized instruction.          (MOV)
0084   0000             MOV B,[D+@]                     2B    3    NOP     1
TASM1.TAB line 0084: Label not found: (MOV)
TASM1.TAB line 0084: label value misalligned.           (MOV)
TASM1.TAB line 0084: unrecognized instruction.          (MOV)
0085   0000             MOV B,[BP+@]                    2C    3    NOP     1
TASM1.TAB line 0085: Label not found: (MOV)
TASM1.TAB line 0085: label value misalligned.           (MOV)
TASM1.TAB line 0085: unrecognized instruction.          (MOV)
0086   0000             MOV B,[BP+D]                    2D    1    NOP     1
TASM1.TAB line 0086: Label not found: (MOV)
TASM1.TAB line 0086: label value misalligned.           (MOV)
TASM1.TAB line 0086: unrecognized instruction.          (MOV)
0087   0000             MOV B,[SP+@]                    2CFD  4    NOP     1
TASM1.TAB line 0087: Label not found: (MOV)
TASM1.TAB line 0087: label value misalligned.           (MOV)
TASM1.TAB line 0087: unrecognized instruction.          (MOV)
0088   0000             MOV B,[@]                       29    3    NOP     1
TASM1.TAB line 0088: Label not found: (MOV)
TASM1.TAB line 0088: label value misalligned.           (MOV)
TASM1.TAB line 0088: unrecognized instruction.          (MOV)
0089   0000             MOV B,@                         26    3    NOP     1
TASM1.TAB line 0089: Label not found: (MOV)
TASM1.TAB line 0089: label value misalligned.           (MOV)
TASM1.TAB line 0089: unrecognized instruction.          (MOV)
0090   0000             MOV BL,AL                       2F    1    NOP     1
TASM1.TAB line 0090: Label not found: (MOV)
TASM1.TAB line 0090: label value misalligned.           (MOV)
TASM1.TAB line 0090: unrecognized instruction.          (MOV)
0091   0000             MOV BL,AH                       99    1    NOP     1
TASM1.TAB line 0091: Label not found: (MOV)
TASM1.TAB line 0091: label value misalligned.           (MOV)
TASM1.TAB line 0091: unrecognized instruction.          (MOV)
0092   0000             MOV BL,BH                       30    1    NOP     1
TASM1.TAB line 0092: Label not found: (MOV)
TASM1.TAB line 0092: label value misalligned.           (MOV)
TASM1.TAB line 0092: unrecognized instruction.          (MOV)
0093   0000             MOV BL,GL                       2FFD  2    NOP     1
TASM1.TAB line 0093: Label not found: (MOV)
TASM1.TAB line 0093: label value misalligned.           (MOV)
TASM1.TAB line 0093: unrecognized instruction.          (MOV)
0094   0000             MOV BL,GH                       30FD  2    NOP     1
TASM1.TAB line 0094: Label not found: (MOV)
TASM1.TAB line 0094: label value misalligned.           (MOV)
TASM1.TAB line 0094: unrecognized instruction.          (MOV)
0095   0000             MOV BH,AL                       36    1    NOP     1
TASM1.TAB line 0095: Label not found: (MOV)
TASM1.TAB line 0095: label value misalligned.           (MOV)
TASM1.TAB line 0095: unrecognized instruction.          (MOV)
0096   0000             MOV BH,AH                       9A    1    NOP     1
TASM1.TAB line 0096: Label not found: (MOV)
TASM1.TAB line 0096: label value misalligned.           (MOV)
TASM1.TAB line 0096: unrecognized instruction.          (MOV)
0097   0000             MOV BH,BL                       37    1    NOP     1
TASM1.TAB line 0097: Label not found: (MOV)
TASM1.TAB line 0097: label value misalligned.           (MOV)
TASM1.TAB line 0097: unrecognized instruction.          (MOV)
0098   0000             MOV BH,GL                       36FD  2    NOP     1
TASM1.TAB line 0098: Label not found: (MOV)
TASM1.TAB line 0098: label value misalligned.           (MOV)
TASM1.TAB line 0098: unrecognized instruction.          (MOV)
0099   0000             MOV BH,GH                       37FD  2    NOP     1
TASM1.TAB line 0099: Label not found: (MOV)
TASM1.TAB line 0099: label value misalligned.           (MOV)
TASM1.TAB line 0099: unrecognized instruction.          (MOV)
0100   0000             MOV BH,@                        A7    2    NOP     1
TASM1.TAB line 0100: Label not found: (MOV)
TASM1.TAB line 0100: label value misalligned.           (MOV)
TASM1.TAB line 0100: unrecognized instruction.          (MOV)
0101   0000             MOV BL,[D]                      32    1    NOP     1
TASM1.TAB line 0101: Label not found: (MOV)
TASM1.TAB line 0101: label value misalligned.           (MOV)
TASM1.TAB line 0101: unrecognized instruction.          (MOV)
0102   0000             MOV BL,[D+@]                    33    3    NOP     1
TASM1.TAB line 0102: Label not found: (MOV)
TASM1.TAB line 0102: label value misalligned.           (MOV)
TASM1.TAB line 0102: unrecognized instruction.          (MOV)
0103   0000             MOV BL,[BP+@]                   34    3    NOP     1
TASM1.TAB line 0103: Label not found: (MOV)
TASM1.TAB line 0103: label value misalligned.           (MOV)
TASM1.TAB line 0103: unrecognized instruction.          (MOV)
0104   0000             MOV BL,[BP+D]                   35    1    NOP     1
TASM1.TAB line 0104: Label not found: (MOV)
TASM1.TAB line 0104: label value misalligned.           (MOV)
TASM1.TAB line 0104: unrecognized instruction.          (MOV)
0105   0000             MOV BL,[SP+@]                   34FD  4    NOP     1
TASM1.TAB line 0105: Label not found: (MOV)
TASM1.TAB line 0105: label value misalligned.           (MOV)
TASM1.TAB line 0105: unrecognized instruction.          (MOV)
0106   0000             MOV BL,[SP+D]                   35FD  2    NOP     1
TASM1.TAB line 0106: Label not found: (MOV)
TASM1.TAB line 0106: label value misalligned.           (MOV)
TASM1.TAB line 0106: unrecognized instruction.          (MOV)
0107   0000             MOV BL,[@]                      31    3    NOP     1
TASM1.TAB line 0107: Label not found: (MOV)
TASM1.TAB line 0107: label value misalligned.           (MOV)
TASM1.TAB line 0107: unrecognized instruction.          (MOV)
0108   0000             MOV BL,@                        2E    2    NOP     1
TASM1.TAB line 0108: Label not found: (MOV)
TASM1.TAB line 0108: label value misalligned.           (MOV)
TASM1.TAB line 0108: unrecognized instruction.          (MOV)
0109   0000             MOV C,A                         39    1    NOP     1
TASM1.TAB line 0109: Label not found: (MOV)
TASM1.TAB line 0109: label value misalligned.           (MOV)
TASM1.TAB line 0109: unrecognized instruction.          (MOV)
0110   0000             MOV C,B                         39FD  2    NOP     1
TASM1.TAB line 0110: Label not found: (MOV)
TASM1.TAB line 0110: label value misalligned.           (MOV)
TASM1.TAB line 0110: unrecognized instruction.          (MOV)
0111   0000             MOV C,G                         38FD  2    NOP     1
TASM1.TAB line 0111: Label not found: (MOV)
TASM1.TAB line 0111: label value misalligned.           (MOV)
TASM1.TAB line 0111: unrecognized instruction.          (MOV)
0112   0000             MOV C,@                         38    3    NOP     1
TASM1.TAB line 0112: Label not found: (MOV)
TASM1.TAB line 0112: label value misalligned.           (MOV)
TASM1.TAB line 0112: unrecognized instruction.          (MOV)
0113   0000             MOV CL,AL                       83    1    NOP     1
TASM1.TAB line 0113: Label not found: (MOV)
TASM1.TAB line 0113: label value misalligned.           (MOV)
TASM1.TAB line 0113: unrecognized instruction.          (MOV)
0114   0000             MOV CL,GL                       3AFD  2    NOP     1
TASM1.TAB line 0114: Label not found: (MOV)
TASM1.TAB line 0114: label value misalligned.           (MOV)
TASM1.TAB line 0114: unrecognized instruction.          (MOV)
0115   0000             MOV CL,GH                       83FD  2    NOP     1
TASM1.TAB line 0115: Label not found: (MOV)
TASM1.TAB line 0115: label value misalligned.           (MOV)
TASM1.TAB line 0115: unrecognized instruction.          (MOV)
0116   0000             MOV CL,@                        3A    2    NOP     1
TASM1.TAB line 0116: Label not found: (MOV)
TASM1.TAB line 0116: label value misalligned.           (MOV)
TASM1.TAB line 0116: unrecognized instruction.          (MOV)
0117   0000             MOV D,[D]                       2AFD  2    NOP     1
TASM1.TAB line 0117: Label not found: (MOV)
TASM1.TAB line 0117: label value misalligned.           (MOV)
TASM1.TAB line 0117: unrecognized instruction.          (MOV)
0118   0000             MOV D,A                         3C    1    NOP     1
TASM1.TAB line 0118: Label not found: (MOV)
TASM1.TAB line 0118: label value misalligned.           (MOV)
TASM1.TAB line 0118: unrecognized instruction.          (MOV)
0119   0000             MOV D,B                         74    1    NOP     1
TASM1.TAB line 0119: Label not found: (MOV)
TASM1.TAB line 0119: label value misalligned.           (MOV)
TASM1.TAB line 0119: unrecognized instruction.          (MOV)
0120   0000             MOV D,C                         3CFD  2    NOP     1
TASM1.TAB line 0120: Label not found: (MOV)
TASM1.TAB line 0120: label value misalligned.           (MOV)
TASM1.TAB line 0120: unrecognized instruction.          (MOV)
0121   0000             MOV D,G                         3BFD  2    NOP     1
TASM1.TAB line 0121: Label not found: (MOV)
TASM1.TAB line 0121: label value misalligned.           (MOV)
TASM1.TAB line 0121: unrecognized instruction.          (MOV)
0122   0000             MOV D,@                         3B    3    NOP     1
TASM1.TAB line 0122: Label not found: (MOV)
TASM1.TAB line 0122: label value misalligned.           (MOV)
TASM1.TAB line 0122: unrecognized instruction.          (MOV)
0123   0000             MOV [D],AL                      3E    1    NOP     1
TASM1.TAB line 0123: Label not found: (MOV)
TASM1.TAB line 0123: label value misalligned.           (MOV)
TASM1.TAB line 0123: unrecognized directive.            (MOV)
0124   0000             MOV [D],BL                      3EFD  2    NOP     1
TASM1.TAB line 0124: Label not found: (MOV)
TASM1.TAB line 0124: label value misalligned.           (MOV)
TASM1.TAB line 0124: unrecognized directive.            (MOV)
0125   0000             MOV [D+@],AL                    3F    3    NOP     1
TASM1.TAB line 0125: Label not found: (MOV)
TASM1.TAB line 0125: label value misalligned.           (MOV)
TASM1.TAB line 0125: unrecognized directive.            (MOV)
0126   0000             MOV [BP+@],AL                   40    3    NOP     1
TASM1.TAB line 0126: Label not found: (MOV)
TASM1.TAB line 0126: label value misalligned.           (MOV)
TASM1.TAB line 0126: unrecognized directive.            (MOV)
0127   0000             MOV [BP+D],AL                   41    1    NOP     1
TASM1.TAB line 0127: Label not found: (MOV)
TASM1.TAB line 0127: label value misalligned.           (MOV)
TASM1.TAB line 0127: unrecognized directive.            (MOV)
0128   0000             MOV [@],AL                      3D    3    NOP     1
TASM1.TAB line 0128: Label not found: (MOV)
TASM1.TAB line 0128: label value misalligned.           (MOV)
TASM1.TAB line 0128: unrecognized directive.            (MOV)
0129   0000             MOV [@],BL                      3DFD  4    NOP     1
TASM1.TAB line 0129: Label not found: (MOV)
TASM1.TAB line 0129: label value misalligned.           (MOV)
TASM1.TAB line 0129: unrecognized directive.            (MOV)
0130   0000             MOV [D],A                       43    1    NOP     1
TASM1.TAB line 0130: Label not found: (MOV)
TASM1.TAB line 0130: label value misalligned.           (MOV)
TASM1.TAB line 0130: unrecognized directive.            (MOV)
0131   0000             MOV [D],B                       43FD  2    NOP     1
TASM1.TAB line 0131: Label not found: (MOV)
TASM1.TAB line 0131: label value misalligned.           (MOV)
TASM1.TAB line 0131: unrecognized directive.            (MOV)
0132   0000             MOV [D+@],A                     44    3    NOP     1
TASM1.TAB line 0132: Label not found: (MOV)
TASM1.TAB line 0132: label value misalligned.           (MOV)
TASM1.TAB line 0132: unrecognized directive.            (MOV)
0133   0000             MOV [D+@],B                     44FD  4    NOP     1
TASM1.TAB line 0133: Label not found: (MOV)
TASM1.TAB line 0133: label value misalligned.           (MOV)
TASM1.TAB line 0133: unrecognized directive.            (MOV)
0134   0000             MOV [BP+@],A                    45    3    NOP     1
TASM1.TAB line 0134: Label not found: (MOV)
TASM1.TAB line 0134: label value misalligned.           (MOV)
TASM1.TAB line 0134: unrecognized directive.            (MOV)
0135   0000             MOV [SP+@],A                    45FD  3    NOP     1
TASM1.TAB line 0135: Label not found: (MOV)
TASM1.TAB line 0135: label value misalligned.           (MOV)
TASM1.TAB line 0135: unrecognized directive.            (MOV)
0136   0000             MOV [BP+D],A                    46    1    NOP     1
TASM1.TAB line 0136: Label not found: (MOV)
TASM1.TAB line 0136: label value misalligned.           (MOV)
TASM1.TAB line 0136: unrecognized directive.            (MOV)
0137   0000             MOV [SP+D],A                    46FD  1    NOP     1
TASM1.TAB line 0137: Label not found: (MOV)
TASM1.TAB line 0137: label value misalligned.           (MOV)
TASM1.TAB line 0137: unrecognized directive.            (MOV)
0138   0000             MOV SP,A                        47    1    NOP     1
TASM1.TAB line 0138: Label not found: (MOV)
TASM1.TAB line 0138: label value misalligned.           (MOV)
TASM1.TAB line 0138: unrecognized instruction.          (MOV)
0139   0000             MOV BP,A                        49    1    NOP     1    
TASM1.TAB line 0139: Label not found: (MOV)
TASM1.TAB line 0139: label value misalligned.           (MOV)
TASM1.TAB line 0139: unrecognized instruction.          (MOV)
0140   0000             MOV [@],A                       42    3    NOP     1
TASM1.TAB line 0140: Label not found: (MOV)
TASM1.TAB line 0140: label value misalligned.           (MOV)
TASM1.TAB line 0140: unrecognized directive.            (MOV)
0141   0000             MOV [@],B                       42FD  4    NOP     1
TASM1.TAB line 0141: Label not found: (MOV)
TASM1.TAB line 0141: label value misalligned.           (MOV)
TASM1.TAB line 0141: unrecognized directive.            (MOV)
0142   0000             MOV BYTE[@],@                   F2    4    COMBINE 1
TASM1.TAB line 0142: Label not found: (MOV)
TASM1.TAB line 0142: label value misalligned.           (MOV)
TASM1.TAB line 0142: unrecognized instruction.          (MOV)
0143   0000             MOV WORD[@],@                   B8    5    COMBINE 1
TASM1.TAB line 0143: Label not found: (MOV)
TASM1.TAB line 0143: label value misalligned.           (MOV)
TASM1.TAB line 0143: unrecognized instruction.          (MOV)
0144   0000             
0145   0000             ADD SP,@                        51    3    NOP     1
TASM1.TAB line 0145: Label not found: (ADD)
TASM1.TAB line 0145: label value misalligned.           (ADD)
TASM1.TAB line 0145: unrecognized instruction.          (ADD)
0146   0000             SUB SP,@                        52    3    NOP     1
TASM1.TAB line 0146: Label not found: (SUB)
TASM1.TAB line 0146: label value misalligned.           (SUB)
TASM1.TAB line 0146: unrecognized instruction.          (SUB)
0147   0000             ADD A,B                         54    1    NOP     1
TASM1.TAB line 0147: Label not found: (ADD)
TASM1.TAB line 0147: label value misalligned.           (ADD)
TASM1.TAB line 0147: unrecognized instruction.          (ADD)
0148   0000             ADD A,C                         55FD  2    NOP     1
TASM1.TAB line 0148: Label not found: (ADD)
TASM1.TAB line 0148: label value misalligned.           (ADD)
TASM1.TAB line 0148: unrecognized instruction.          (ADD)
0149   0000             ADD A,D                         56FD  2    NOP     1
TASM1.TAB line 0149: Label not found: (ADD)
TASM1.TAB line 0149: label value misalligned.           (ADD)
TASM1.TAB line 0149: unrecognized instruction.          (ADD)
0150   0000             ADD A,@                         53    3    NOP     1
TASM1.TAB line 0150: Label not found: (ADD)
TASM1.TAB line 0150: label value misalligned.           (ADD)
TASM1.TAB line 0150: unrecognized instruction.          (ADD)
0151   0000             ADD B,A                         56    1    NOP     1
TASM1.TAB line 0151: Label not found: (ADD)
TASM1.TAB line 0151: label value misalligned.           (ADD)
TASM1.TAB line 0151: unrecognized instruction.          (ADD)
0152   0000             ADD B,C                         57FD  2    NOP     1
TASM1.TAB line 0152: Label not found: (ADD)
TASM1.TAB line 0152: label value misalligned.           (ADD)
TASM1.TAB line 0152: unrecognized instruction.          (ADD)
0153   0000             ADD B,D                         58FD  2    NOP     1
TASM1.TAB line 0153: Label not found: (ADD)
TASM1.TAB line 0153: label value misalligned.           (ADD)
TASM1.TAB line 0153: unrecognized instruction.          (ADD)
0154   0000             ADD B,@                         55    3    NOP     1
TASM1.TAB line 0154: Label not found: (ADD)
TASM1.TAB line 0154: label value misalligned.           (ADD)
TASM1.TAB line 0154: unrecognized instruction.          (ADD)
0155   0000             ADD C,A                         59FD  2    NOP     1
TASM1.TAB line 0155: Label not found: (ADD)
TASM1.TAB line 0155: label value misalligned.           (ADD)
TASM1.TAB line 0155: unrecognized instruction.          (ADD)
0156   0000             ADD C,B                         5AFD  2    NOP     1
TASM1.TAB line 0156: Label not found: (ADD)
TASM1.TAB line 0156: label value misalligned.           (ADD)
TASM1.TAB line 0156: unrecognized instruction.          (ADD)
0157   0000             ADD C,D                         5BFD  2    NOP     1
TASM1.TAB line 0157: Label not found: (ADD)
TASM1.TAB line 0157: label value misalligned.           (ADD)
TASM1.TAB line 0157: unrecognized instruction.          (ADD)
0158   0000             ADD C,@                         57    3    NOP     1
TASM1.TAB line 0158: Label not found: (ADD)
TASM1.TAB line 0158: label value misalligned.           (ADD)
TASM1.TAB line 0158: unrecognized instruction.          (ADD)
0159   0000             ADD D,A                         59    1    NOP     1
TASM1.TAB line 0159: Label not found: (ADD)
TASM1.TAB line 0159: label value misalligned.           (ADD)
TASM1.TAB line 0159: unrecognized instruction.          (ADD)
0160   0000             ADD D,B                         5A    1    NOP     1
TASM1.TAB line 0160: Label not found: (ADD)
TASM1.TAB line 0160: label value misalligned.           (ADD)
TASM1.TAB line 0160: unrecognized instruction.          (ADD)
0161   0000             ADD D,C                         5CFD  2    NOP     1
TASM1.TAB line 0161: Label not found: (ADD)
TASM1.TAB line 0161: label value misalligned.           (ADD)
TASM1.TAB line 0161: unrecognized instruction.          (ADD)
0162   0000             ADD D,@                         58    3    NOP     1
TASM1.TAB line 0162: Label not found: (ADD)
TASM1.TAB line 0162: label value misalligned.           (ADD)
TASM1.TAB line 0162: unrecognized instruction.          (ADD)
0163   0000             ADC A,B                         5C    1    NOP     1
TASM1.TAB line 0163: Label not found: (ADC)
TASM1.TAB line 0163: label value misalligned.           (ADC)
TASM1.TAB line 0163: unrecognized instruction.          (ADC)
0164   0000             ADC A,@                         5B    3    NOP     1
TASM1.TAB line 0164: Label not found: (ADC)
TASM1.TAB line 0164: label value misalligned.           (ADC)
TASM1.TAB line 0164: unrecognized instruction.          (ADC)
0165   0000             ADC B,@                         5D    3    NOP     1
TASM1.TAB line 0165: Label not found: (ADC)
TASM1.TAB line 0165: label value misalligned.           (ADC)
TASM1.TAB line 0165: unrecognized instruction.          (ADC)
0166   0000             ADC C,@                         5E    3    NOP     1
TASM1.TAB line 0166: Label not found: (ADC)
TASM1.TAB line 0166: label value misalligned.           (ADC)
TASM1.TAB line 0166: unrecognized instruction.          (ADC)
0167   0000             SUB A,B                         60    1    NOP     1
TASM1.TAB line 0167: Label not found: (SUB)
TASM1.TAB line 0167: label value misalligned.           (SUB)
TASM1.TAB line 0167: unrecognized instruction.          (SUB)
0168   0000             SUB A,C                         5DFD  2    NOP     1
TASM1.TAB line 0168: Label not found: (SUB)
TASM1.TAB line 0168: label value misalligned.           (SUB)
TASM1.TAB line 0168: unrecognized instruction.          (SUB)
0169   0000             SUB A,D                         5EFD  2    NOP     1
TASM1.TAB line 0169: Label not found: (SUB)
TASM1.TAB line 0169: label value misalligned.           (SUB)
TASM1.TAB line 0169: unrecognized instruction.          (SUB)
0170   0000             
0171   0000             SUB A,@                         5F    3    NOP     1
TASM1.TAB line 0171: Label not found: (SUB)
TASM1.TAB line 0171: label value misalligned.           (SUB)
TASM1.TAB line 0171: unrecognized instruction.          (SUB)
0172   0000             SUB B,A                         5FFD  2    NOP     1
TASM1.TAB line 0172: Label not found: (SUB)
TASM1.TAB line 0172: label value misalligned.           (SUB)
TASM1.TAB line 0172: unrecognized instruction.          (SUB)
0173   0000             SUB B,C                         60FD  2    NOP     1
TASM1.TAB line 0173: Label not found: (SUB)
TASM1.TAB line 0173: label value misalligned.           (SUB)
TASM1.TAB line 0173: unrecognized instruction.          (SUB)
0174   0000             SUB B,D                         61FD  2    NOP     1
TASM1.TAB line 0174: Label not found: (SUB)
TASM1.TAB line 0174: label value misalligned.           (SUB)
TASM1.TAB line 0174: unrecognized instruction.          (SUB)
0175   0000             SUB C,A                         62FD  2    NOP     1
TASM1.TAB line 0175: Label not found: (SUB)
TASM1.TAB line 0175: label value misalligned.           (SUB)
TASM1.TAB line 0175: unrecognized instruction.          (SUB)
0176   0000             SUB C,B                         63FD  2    NOP     1
TASM1.TAB line 0176: Label not found: (SUB)
TASM1.TAB line 0176: label value misalligned.           (SUB)
TASM1.TAB line 0176: unrecognized instruction.          (SUB)
0177   0000             SUB C,D                         64FD  2    NOP     1
TASM1.TAB line 0177: Label not found: (SUB)
TASM1.TAB line 0177: label value misalligned.           (SUB)
TASM1.TAB line 0177: unrecognized instruction.          (SUB)
0178   0000             SUB B,@                         61    3    NOP     1
TASM1.TAB line 0178: Label not found: (SUB)
TASM1.TAB line 0178: label value misalligned.           (SUB)
TASM1.TAB line 0178: unrecognized instruction.          (SUB)
0179   0000             SUB C,@                         62    3    NOP     1
TASM1.TAB line 0179: Label not found: (SUB)
TASM1.TAB line 0179: label value misalligned.           (SUB)
TASM1.TAB line 0179: unrecognized instruction.          (SUB)
0180   0000             SUB D,A                         64    1    NOP     1
TASM1.TAB line 0180: Label not found: (SUB)
TASM1.TAB line 0180: label value misalligned.           (SUB)
TASM1.TAB line 0180: unrecognized instruction.          (SUB)
0181   0000             SUB D,B                         65    1    NOP     1
TASM1.TAB line 0181: Label not found: (SUB)
TASM1.TAB line 0181: label value misalligned.           (SUB)
TASM1.TAB line 0181: unrecognized instruction.          (SUB)
0182   0000             SUB D,@                         63    3    NOP     1
TASM1.TAB line 0182: Label not found: (SUB)
TASM1.TAB line 0182: label value misalligned.           (SUB)
TASM1.TAB line 0182: unrecognized instruction.          (SUB)
0183   0000             SBB A,B                         67    1    NOP     1
TASM1.TAB line 0183: Label not found: (SBB)
TASM1.TAB line 0183: label value misalligned.           (SBB)
TASM1.TAB line 0183: unrecognized instruction.          (SBB)
0184   0000             SBB A,@                         66    3    NOP     1
TASM1.TAB line 0184: Label not found: (SBB)
TASM1.TAB line 0184: label value misalligned.           (SBB)
TASM1.TAB line 0184: unrecognized instruction.          (SBB)
0185   0000             SBB B,@                         68    3    NOP     1
TASM1.TAB line 0185: Label not found: (SBB)
TASM1.TAB line 0185: label value misalligned.           (SBB)
TASM1.TAB line 0185: unrecognized instruction.          (SBB)
0186   0000             SBB C,@                         69    3    NOP     1
TASM1.TAB line 0186: Label not found: (SBB)
TASM1.TAB line 0186: label value misalligned.           (SBB)
TASM1.TAB line 0186: unrecognized instruction.          (SBB)
0187   0000             ADD AL,BL                       6B    1    NOP     1
TASM1.TAB line 0187: Label not found: (ADD)
TASM1.TAB line 0187: label value misalligned.           (ADD)
TASM1.TAB line 0187: unrecognized instruction.          (ADD)
0188   0000             ADD AL,@                        6A    2    NOP     1
TASM1.TAB line 0188: Label not found: (ADD)
TASM1.TAB line 0188: label value misalligned.           (ADD)
TASM1.TAB line 0188: unrecognized instruction.          (ADD)
0189   0000             ADD BL,AL                       6CFD  2    NOP     1
TASM1.TAB line 0189: Label not found: (ADD)
TASM1.TAB line 0189: label value misalligned.           (ADD)
TASM1.TAB line 0189: unrecognized instruction.          (ADD)
0190   0000             ADD BL,@                        6C    2    NOP     1
TASM1.TAB line 0190: Label not found: (ADD)
TASM1.TAB line 0190: label value misalligned.           (ADD)
TASM1.TAB line 0190: unrecognized instruction.          (ADD)
0191   0000             ADD CL,@                        6D    2    NOP     1
TASM1.TAB line 0191: Label not found: (ADD)
TASM1.TAB line 0191: label value misalligned.           (ADD)
TASM1.TAB line 0191: unrecognized instruction.          (ADD)
0192   0000             ADD CH,@                        6E    2    NOP     1
TASM1.TAB line 0192: Label not found: (ADD)
TASM1.TAB line 0192: label value misalligned.           (ADD)
TASM1.TAB line 0192: unrecognized instruction.          (ADD)
0193   0000             SUB AL,BL                       70    1    NOP     1
TASM1.TAB line 0193: Label not found: (SUB)
TASM1.TAB line 0193: label value misalligned.           (SUB)
TASM1.TAB line 0193: unrecognized instruction.          (SUB)
0194   0000             SUB AL,@                        6F    2    NOP     1
TASM1.TAB line 0194: Label not found: (SUB)
TASM1.TAB line 0194: label value misalligned.           (SUB)
TASM1.TAB line 0194: unrecognized instruction.          (SUB)
0195   0000             SUB CL,@                        71    2    NOP     1
TASM1.TAB line 0195: Label not found: (SUB)
TASM1.TAB line 0195: label value misalligned.           (SUB)
TASM1.TAB line 0195: unrecognized instruction.          (SUB)
0196   0000             SUB CH,@                        72    2    NOP     1
TASM1.TAB line 0196: Label not found: (SUB)
TASM1.TAB line 0196: label value misalligned.           (SUB)
TASM1.TAB line 0196: unrecognized instruction.          (SUB)
0197   0000                   
0198   0000             INC A                           77    1    NOP     1
TASM1.TAB line 0198: Label not found: (INC)
TASM1.TAB line 0198: label value misalligned.           (INC)
TASM1.TAB line 0198: unrecognized instruction.          (INC)
0199   0000             INC C                           78    1    NOP     1
TASM1.TAB line 0199: Label not found: (INC)
TASM1.TAB line 0199: label value misalligned.           (INC)
TASM1.TAB line 0199: unrecognized instruction.          (INC)
0200   0000             INC D                           79    1    NOP     1
TASM1.TAB line 0200: Label not found: (INC)
TASM1.TAB line 0200: label value misalligned.           (INC)
TASM1.TAB line 0200: unrecognized instruction.          (INC)
0201   0000             INC AL                          7A    1    NOP     1
TASM1.TAB line 0201: Label not found: (INC)
TASM1.TAB line 0201: label value misalligned.           (INC)
TASM1.TAB line 0201: unrecognized instruction.          (INC)
0202   0000             INC AH                          75    1    NOP     1
TASM1.TAB line 0202: Label not found: (INC)
TASM1.TAB line 0202: label value misalligned.           (INC)
TASM1.TAB line 0202: unrecognized instruction.          (INC)
0203   0000             INC CL                          7B    1    NOP     1
TASM1.TAB line 0203: Label not found: (INC)
TASM1.TAB line 0203: label value misalligned.           (INC)
TASM1.TAB line 0203: unrecognized instruction.          (INC)
0204   0000             INC CH                          7C    1    NOP     1
TASM1.TAB line 0204: Label not found: (INC)
TASM1.TAB line 0204: label value misalligned.           (INC)
TASM1.TAB line 0204: unrecognized instruction.          (INC)
0205   0000             DEC A                           7D    1    NOP     1
TASM1.TAB line 0205: Label not found: (DEC)
TASM1.TAB line 0205: label value misalligned.           (DEC)
TASM1.TAB line 0205: unrecognized instruction.          (DEC)
0206   0000             DEC C                           7E    1    NOP     1
TASM1.TAB line 0206: Label not found: (DEC)
TASM1.TAB line 0206: label value misalligned.           (DEC)
TASM1.TAB line 0206: unrecognized instruction.          (DEC)
0207   0000             DEC D                           7F    1    NOP     1
TASM1.TAB line 0207: Label not found: (DEC)
TASM1.TAB line 0207: label value misalligned.           (DEC)
TASM1.TAB line 0207: unrecognized instruction.          (DEC)
0208   0000             DEC AL                          80    1    NOP     1
TASM1.TAB line 0208: Label not found: (DEC)
TASM1.TAB line 0208: label value misalligned.           (DEC)
TASM1.TAB line 0208: unrecognized instruction.          (DEC)
0209   0000             DEC AH                          73    1    NOP     1
TASM1.TAB line 0209: Label not found: (DEC)
TASM1.TAB line 0209: label value misalligned.           (DEC)
TASM1.TAB line 0209: unrecognized instruction.          (DEC)
0210   0000             DEC CL                          81    1    NOP     1
TASM1.TAB line 0210: Label not found: (DEC)
TASM1.TAB line 0210: label value misalligned.           (DEC)
TASM1.TAB line 0210: unrecognized instruction.          (DEC)
0211   0000             DEC CH                          82    1    NOP     1
TASM1.TAB line 0211: Label not found: (DEC)
TASM1.TAB line 0211: label value misalligned.           (DEC)
TASM1.TAB line 0211: unrecognized instruction.          (DEC)
0212   0000             
0213   0000             AND A,B                         86    1    NOP     1
TASM1.TAB line 0213: Label not found: (AND)
TASM1.TAB line 0213: label value misalligned.           (AND)
TASM1.TAB line 0213: unrecognized instruction.          (AND)
0214   0000             AND A,@                         85    3    NOP     1
TASM1.TAB line 0214: Label not found: (AND)
TASM1.TAB line 0214: label value misalligned.           (AND)
TASM1.TAB line 0214: unrecognized instruction.          (AND)
0215   0000             AND AL,BL                       88    1    NOP     1
TASM1.TAB line 0215: Label not found: (AND)
TASM1.TAB line 0215: label value misalligned.           (AND)
TASM1.TAB line 0215: unrecognized instruction.          (AND)
0216   0000             AND AL,@                        87    2    NOP     1
TASM1.TAB line 0216: Label not found: (AND)
TASM1.TAB line 0216: label value misalligned.           (AND)
TASM1.TAB line 0216: unrecognized instruction.          (AND)
0217   0000             AND B,A                         92FD  2    NOP     1
TASM1.TAB line 0217: Label not found: (AND)
TASM1.TAB line 0217: label value misalligned.           (AND)
TASM1.TAB line 0217: unrecognized instruction.          (AND)
0218   0000             AND BL,@                        87FD  3    NOP     1
TASM1.TAB line 0218: Label not found: (AND)
TASM1.TAB line 0218: label value misalligned.           (AND)
TASM1.TAB line 0218: unrecognized instruction.          (AND)
0219   0000             
0220   0000             NAND A,B                        86FD  2    NOP     1
TASM1.TAB line 0220: Label not found: (NAND)
TASM1.TAB line 0220: label value misalligned.           (NAND)
TASM1.TAB line 0220: unrecognized instruction.          (NAND)
0221   0000             NAND A,@                        85FD  4    NOP     1
TASM1.TAB line 0221: Label not found: (NAND)
TASM1.TAB line 0221: label value misalligned.           (NAND)
TASM1.TAB line 0221: unrecognized instruction.          (NAND)
0222   0000             NAND AL,@                       84FD  3    NOP     1
TASM1.TAB line 0222: Label not found: (NAND)
TASM1.TAB line 0222: label value misalligned.           (NAND)
TASM1.TAB line 0222: unrecognized instruction.          (NAND)
0223   0000             NAND AL,BL                      88FD  2    NOP     1
TASM1.TAB line 0223: Label not found: (NAND)
TASM1.TAB line 0223: label value misalligned.           (NAND)
TASM1.TAB line 0223: unrecognized instruction.          (NAND)
0224   0000             
0225   0000             OR A,B                          8A    1    NOP     1
TASM1.TAB line 0225: Label not found: (OR)
TASM1.TAB line 0225: label value misalligned.           (OR)
TASM1.TAB line 0225: unrecognized instruction.          (OR)
0226   0000             OR A,@                          89    3    NOP     1
TASM1.TAB line 0226: Label not found: (OR)
TASM1.TAB line 0226: label value misalligned.           (OR)
TASM1.TAB line 0226: unrecognized instruction.          (OR)
0227   0000             OR AL,BL                        8C    1    NOP     1
TASM1.TAB line 0227: Label not found: (OR)
TASM1.TAB line 0227: label value misalligned.           (OR)
TASM1.TAB line 0227: unrecognized instruction.          (OR)
0228   0000             OR AL,@                         8B    2    NOP     1
TASM1.TAB line 0228: Label not found: (OR)
TASM1.TAB line 0228: label value misalligned.           (OR)
TASM1.TAB line 0228: unrecognized instruction.          (OR)
0229   0000             OR B,A                          70FD  2    NOP     1
TASM1.TAB line 0229: Label not found: (OR)
TASM1.TAB line 0229: label value misalligned.           (OR)
TASM1.TAB line 0229: unrecognized instruction.          (OR)
0230   0000             OR BL,@                         8BFD  3    NOP     1
TASM1.TAB line 0230: Label not found: (OR)
TASM1.TAB line 0230: label value misalligned.           (OR)
TASM1.TAB line 0230: unrecognized instruction.          (OR)
0231   0000             NOR A,B                         8AFD  2    NOP     1
TASM1.TAB line 0231: Label not found: (NOR)
TASM1.TAB line 0231: label value misalligned.           (NOR)
TASM1.TAB line 0231: unrecognized instruction.          (NOR)
0232   0000             NOR A,@                         89FD  4    NOP     1
TASM1.TAB line 0232: Label not found: (NOR)
TASM1.TAB line 0232: label value misalligned.           (NOR)
TASM1.TAB line 0232: unrecognized instruction.          (NOR)
0233   0000             NOR AL,BL                       8CFD  2    NOP     1
TASM1.TAB line 0233: Label not found: (NOR)
TASM1.TAB line 0233: label value misalligned.           (NOR)
TASM1.TAB line 0233: unrecognized instruction.          (NOR)
0234   0000             NOR AL,@                        8DFD  3    NOP     1
TASM1.TAB line 0234: Label not found: (NOR)
TASM1.TAB line 0234: label value misalligned.           (NOR)
TASM1.TAB line 0234: unrecognized instruction.          (NOR)
0235   0000             
0236   0000             XOR A,B                         8E    1    NOP     1
TASM1.TAB line 0236: Label not found: (XOR)
TASM1.TAB line 0236: label value misalligned.           (XOR)
TASM1.TAB line 0236: unrecognized instruction.          (XOR)
0237   0000             XOR A,@                         8D    3    NOP     1
TASM1.TAB line 0237: Label not found: (XOR)
TASM1.TAB line 0237: label value misalligned.           (XOR)
TASM1.TAB line 0237: unrecognized instruction.          (XOR)
0238   0000             XOR AL,BL                       90    1    NOP     1
TASM1.TAB line 0238: Label not found: (XOR)
TASM1.TAB line 0238: label value misalligned.           (XOR)
TASM1.TAB line 0238: unrecognized instruction.          (XOR)
0239   0000             XOR AL,@                        8F    2    NOP     1
TASM1.TAB line 0239: Label not found: (XOR)
TASM1.TAB line 0239: label value misalligned.           (XOR)
TASM1.TAB line 0239: unrecognized instruction.          (XOR)
0240   0000             TEST A,B                        92    1    NOP     1
TASM1.TAB line 0240: Label not found: (TEST)
TASM1.TAB line 0240: label value misalligned.           (TEST)
TASM1.TAB line 0240: unrecognized instruction.          (TEST)
0241   0000             TEST A,@                        91    3    NOP     1
TASM1.TAB line 0241: Label not found: (TEST)
TASM1.TAB line 0241: label value misalligned.           (TEST)
TASM1.TAB line 0241: unrecognized instruction.          (TEST)
0242   0000             TEST AL,BL                      94    1    NOP     1
TASM1.TAB line 0242: Label not found: (TEST)
TASM1.TAB line 0242: label value misalligned.           (TEST)
TASM1.TAB line 0242: unrecognized instruction.          (TEST)
0243   0000             TEST AL,@                       93    2    NOP     1
TASM1.TAB line 0243: Label not found: (TEST)
TASM1.TAB line 0243: label value misalligned.           (TEST)
TASM1.TAB line 0243: unrecognized instruction.          (TEST)
0244   0000             TEST BL,@                       93FD  3    NOP     1
TASM1.TAB line 0244: Label not found: (TEST)
TASM1.TAB line 0244: label value misalligned.           (TEST)
TASM1.TAB line 0244: unrecognized instruction.          (TEST)
0245   0000             TEST CL,@                       94FD  3    NOP     1
TASM1.TAB line 0245: Label not found: (TEST)
TASM1.TAB line 0245: label value misalligned.           (TEST)
TASM1.TAB line 0245: unrecognized instruction.          (TEST)
0246   0000             
0247   0000             NOT A                           95    1    NOP     1
TASM1.TAB line 0247: Label not found: (NOT)
TASM1.TAB line 0247: label value misalligned.           (NOT)
TASM1.TAB line 0247: unrecognized instruction.          (NOT)
0248   0000             NOT AL                          96    1    NOP     1
TASM1.TAB line 0248: Label not found: (NOT)
TASM1.TAB line 0248: label value misalligned.           (NOT)
TASM1.TAB line 0248: unrecognized instruction.          (NOT)
0249   0000             NOT B                           97    1    NOP     1
TASM1.TAB line 0249: Label not found: (NOT)
TASM1.TAB line 0249: label value misalligned.           (NOT)
TASM1.TAB line 0249: unrecognized instruction.          (NOT)
0250   0000             NOT BL                          98    1    NOP     1
TASM1.TAB line 0250: Label not found: (NOT)
TASM1.TAB line 0250: label value misalligned.           (NOT)
TASM1.TAB line 0250: unrecognized instruction.          (NOT)
0251   0000             MOV BP,SP                       9B    1    NOP     1
TASM1.TAB line 0251: Label not found: (MOV)
TASM1.TAB line 0251: label value misalligned.           (MOV)
TASM1.TAB line 0251: unrecognized instruction.          (MOV)
0252   0000             MOV SP,BP                       9C    1    NOP     1
TASM1.TAB line 0252: Label not found: (MOV)
TASM1.TAB line 0252: label value misalligned.           (MOV)
TASM1.TAB line 0252: unrecognized instruction.          (MOV)
0253   0000             SHL A,CL                        9D    1    NOP     1
TASM1.TAB line 0253: Label not found: (SHL)
TASM1.TAB line 0253: label value misalligned.           (SHL)
TASM1.TAB line 0253: unrecognized instruction.          (SHL)
0254   0000             SHL AL,CL                       9E    1    NOP     1
TASM1.TAB line 0254: Label not found: (SHL)
TASM1.TAB line 0254: label value misalligned.           (SHL)
TASM1.TAB line 0254: unrecognized instruction.          (SHL)
0255   0000             SHL B,CL                        9F    1    NOP     1
TASM1.TAB line 0255: Label not found: (SHL)
TASM1.TAB line 0255: label value misalligned.           (SHL)
TASM1.TAB line 0255: unrecognized instruction.          (SHL)
0256   0000             SHL BL,CL                       A0    1    NOP     1
TASM1.TAB line 0256: Label not found: (SHL)
TASM1.TAB line 0256: label value misalligned.           (SHL)
TASM1.TAB line 0256: unrecognized instruction.          (SHL)
0257   0000             SHR A,CL                        A1    1    NOP     1
TASM1.TAB line 0257: Label not found: (SHR)
TASM1.TAB line 0257: label value misalligned.           (SHR)
TASM1.TAB line 0257: unrecognized instruction.          (SHR)
0258   0000             SHR AL,CL                       A2    1    NOP     1
TASM1.TAB line 0258: Label not found: (SHR)
TASM1.TAB line 0258: label value misalligned.           (SHR)
TASM1.TAB line 0258: unrecognized instruction.          (SHR)
0259   0000             SHR B,CL                        A3    1    NOP     1
TASM1.TAB line 0259: Label not found: (SHR)
TASM1.TAB line 0259: label value misalligned.           (SHR)
TASM1.TAB line 0259: unrecognized instruction.          (SHR)
0260   0000             SHR BL,CL                       A4    1    NOP     1
TASM1.TAB line 0260: Label not found: (SHR)
TASM1.TAB line 0260: label value misalligned.           (SHR)
TASM1.TAB line 0260: unrecognized instruction.          (SHR)
0261   0000             ASHR A,CL                       A5    1    NOP     1
TASM1.TAB line 0261: Label not found: (ASHR)
TASM1.TAB line 0261: label value misalligned.           (ASHR)
TASM1.TAB line 0261: unrecognized instruction.          (ASHR)
0262   0000             ASHR AL,CL                      A6    1    NOP     1
TASM1.TAB line 0262: Label not found: (ASHR)
TASM1.TAB line 0262: label value misalligned.           (ASHR)
TASM1.TAB line 0262: unrecognized instruction.          (ASHR)
0263   0000             ASHR A,@                        A5FD  3    NOP     1
TASM1.TAB line 0263: Label not found: (ASHR)
TASM1.TAB line 0263: label value misalligned.           (ASHR)
TASM1.TAB line 0263: unrecognized instruction.          (ASHR)
0264   0000             ASHR AL,@                       A6FD  3    NOP     1
TASM1.TAB line 0264: Label not found: (ASHR)
TASM1.TAB line 0264: label value misalligned.           (ASHR)
TASM1.TAB line 0264: unrecognized instruction.          (ASHR)
0265   0000             
0266   0000             ASHR B,CL                       8EFD  2    NOP     1
TASM1.TAB line 0266: Label not found: (ASHR)
TASM1.TAB line 0266: label value misalligned.           (ASHR)
TASM1.TAB line 0266: unrecognized instruction.          (ASHR)
0267   0000             ASHR BL,CL                      8FFD  2    NOP     1
TASM1.TAB line 0267: Label not found: (ASHR)
TASM1.TAB line 0267: label value misalligned.           (ASHR)
TASM1.TAB line 0267: unrecognized instruction.          (ASHR)
0268   0000             ASHR B,@                        90FD  3    NOP     1
TASM1.TAB line 0268: Label not found: (ASHR)
TASM1.TAB line 0268: label value misalligned.           (ASHR)
TASM1.TAB line 0268: unrecognized instruction.          (ASHR)
0269   0000             ASHR BL,@                       91FD  3    NOP     1
TASM1.TAB line 0269: Label not found: (ASHR)
TASM1.TAB line 0269: label value misalligned.           (ASHR)
TASM1.TAB line 0269: unrecognized instruction.          (ASHR)
0270   0000             
0271   0000               
0272   0000             LOOPB @                         A9FD  4    NOP     1
TASM1.TAB line 0272: Label not found: (LOOPB)
TASM1.TAB line 0272: label value misalligned.           (LOOPB)
TASM1.TAB line 0272: unrecognized directive.            (LOOPB)
0273   0000             LOOPC @                         A9    3    NOP     1
TASM1.TAB line 0273: Label not found: (LOOPC)
TASM1.TAB line 0273: label value misalligned.           (LOOPC)
TASM1.TAB line 0273: unrecognized directive.            (LOOPC)
0274   0000             SNEX A                          AA    1    NOP     1
TASM1.TAB line 0274: Label not found: (SNEX)
TASM1.TAB line 0274: label value misalligned.           (SNEX)
TASM1.TAB line 0274: unrecognized instruction.          (SNEX)
0275   0000             SNEX B                          AB    1    NOP     1
TASM1.TAB line 0275: Label not found: (SNEX)
TASM1.TAB line 0275: label value misalligned.           (SNEX)
TASM1.TAB line 0275: unrecognized instruction.          (SNEX)
0276   0000             MUL A,B                         AC    1    NOP     1
TASM1.TAB line 0276: Label not found: (MUL)
TASM1.TAB line 0276: label value misalligned.           (MUL)
TASM1.TAB line 0276: unrecognized instruction.          (MUL)
0277   0000             MUL A,C                         ACFD  2    NOP     1
TASM1.TAB line 0277: Label not found: (MUL)
TASM1.TAB line 0277: label value misalligned.           (MUL)
TASM1.TAB line 0277: unrecognized instruction.          (MUL)
0278   0000             MUL AL,BL                       AD    1    NOP     1
TASM1.TAB line 0278: Label not found: (MUL)
TASM1.TAB line 0278: label value misalligned.           (MUL)
TASM1.TAB line 0278: unrecognized instruction.          (MUL)
0279   0000             MMA @                           13FD  4    NOP     1
TASM1.TAB line 0279: Label not found: (MMA)
TASM1.TAB line 0279: label value misalligned.           (MMA)
TASM1.TAB line 0279: unrecognized directive.            (MMA)
0280   0000             DIV A,B                         AE    1    NOP     1
TASM1.TAB line 0280: Label not found: (DIV)
TASM1.TAB line 0280: label value misalligned.           (DIV)
TASM1.TAB line 0280: unrecognized instruction.          (DIV)
0281   0000             CMP A,B                         B0    1    NOP     1
TASM1.TAB line 0281: Label not found: (CMP)
TASM1.TAB line 0281: label value misalligned.           (CMP)
TASM1.TAB line 0281: unrecognized instruction.          (CMP)
0282   0000             CMP A,C                         B1    1    NOP     1
TASM1.TAB line 0282: Label not found: (CMP)
TASM1.TAB line 0282: label value misalligned.           (CMP)
TASM1.TAB line 0282: unrecognized instruction.          (CMP)
0283   0000             CMP A,D                         B2    1    NOP     1
TASM1.TAB line 0283: Label not found: (CMP)
TASM1.TAB line 0283: label value misalligned.           (CMP)
TASM1.TAB line 0283: unrecognized instruction.          (CMP)
0284   0000             CMP A,@                         AF    3    NOP     1
TASM1.TAB line 0284: Label not found: (CMP)
TASM1.TAB line 0284: label value misalligned.           (CMP)
TASM1.TAB line 0284: unrecognized instruction.          (CMP)
0285   0000             CMP AL,BL                       BA    1    NOP     1
TASM1.TAB line 0285: Label not found: (CMP)
TASM1.TAB line 0285: label value misalligned.           (CMP)
TASM1.TAB line 0285: unrecognized instruction.          (CMP)
0286   0000             CMP AL,CL                       BB    1    NOP     1
TASM1.TAB line 0286: Label not found: (CMP)
TASM1.TAB line 0286: label value misalligned.           (CMP)
TASM1.TAB line 0286: unrecognized instruction.          (CMP)
0287   0000             
0288   0000             CMP BYTE[D],@                   BD    2    NOP     1
TASM1.TAB line 0288: Label not found: (CMP)
TASM1.TAB line 0288: label value misalligned.           (CMP)
TASM1.TAB line 0288: unrecognized instruction.          (CMP)
0289   0000             CMP BYTE[D+@],@                 BE    4    NOP     1
TASM1.TAB line 0289: Label not found: (CMP)
TASM1.TAB line 0289: label value misalligned.           (CMP)
TASM1.TAB line 0289: unrecognized instruction.          (CMP)
0290   0000             CMP BYTE[BP+@],@                BF    4    NOP     1
TASM1.TAB line 0290: Label not found: (CMP)
TASM1.TAB line 0290: label value misalligned.           (CMP)
TASM1.TAB line 0290: unrecognized instruction.          (CMP)
0291   0000             CMP BYTE[@],@                   BC    4    COMBINE 1
TASM1.TAB line 0291: Label not found: (CMP)
TASM1.TAB line 0291: label value misalligned.           (CMP)
TASM1.TAB line 0291: unrecognized instruction.          (CMP)
0292   0000             
0293   0000             CMP WORD[D],@                   B4    3    NOP     1
TASM1.TAB line 0293: Label not found: (CMP)
TASM1.TAB line 0293: label value misalligned.           (CMP)
TASM1.TAB line 0293: unrecognized instruction.          (CMP)
0294   0000             CMP WORD[D+@],@                 B5    5    NOP     1
TASM1.TAB line 0294: Label not found: (CMP)
TASM1.TAB line 0294: label value misalligned.           (CMP)
TASM1.TAB line 0294: unrecognized instruction.          (CMP)
0295   0000             CMP WORD[BP+@],@                B6    5    NOP     1
TASM1.TAB line 0295: Label not found: (CMP)
TASM1.TAB line 0295: label value misalligned.           (CMP)
TASM1.TAB line 0295: unrecognized instruction.          (CMP)
0296   0000             CMP WORD[@],@                   B3    5    COMBINE 1
TASM1.TAB line 0296: Label not found: (CMP)
TASM1.TAB line 0296: label value misalligned.           (CMP)
TASM1.TAB line 0296: unrecognized instruction.          (CMP)
0297   0000             
0298   0000             CMP AL,@                        B9    2    NOP     1
TASM1.TAB line 0298: Label not found: (CMP)
TASM1.TAB line 0298: label value misalligned.           (CMP)
TASM1.TAB line 0298: unrecognized instruction.          (CMP)
0299   0000             CMP AH,@                        76    2    NOP     1
TASM1.TAB line 0299: Label not found: (CMP)
TASM1.TAB line 0299: label value misalligned.           (CMP)
TASM1.TAB line 0299: unrecognized instruction.          (CMP)
0300   0000             CMP B,C                         C0FD  2    NOP     1
TASM1.TAB line 0300: Label not found: (CMP)
TASM1.TAB line 0300: label value misalligned.           (CMP)
TASM1.TAB line 0300: unrecognized instruction.          (CMP)
0301   0000             CMP B,@                         C0    3    NOP     1
TASM1.TAB line 0301: Label not found: (CMP)
TASM1.TAB line 0301: label value misalligned.           (CMP)
TASM1.TAB line 0301: unrecognized instruction.          (CMP)
0302   0000             CMP BL,@                        C1    2    NOP     1
TASM1.TAB line 0302: Label not found: (CMP)
TASM1.TAB line 0302: label value misalligned.           (CMP)
TASM1.TAB line 0302: unrecognized instruction.          (CMP)
0303   0000             CMP C,@                         C2    3    NOP     1
TASM1.TAB line 0303: Label not found: (CMP)
TASM1.TAB line 0303: label value misalligned.           (CMP)
TASM1.TAB line 0303: unrecognized instruction.          (CMP)
0304   0000             CMP CL,@                        C3    2    NOP     1
TASM1.TAB line 0304: Label not found: (CMP)
TASM1.TAB line 0304: label value misalligned.           (CMP)
TASM1.TAB line 0304: unrecognized instruction.          (CMP)
0305   0000             CMP CH,@                        C4    2    NOP     1
TASM1.TAB line 0305: Label not found: (CMP)
TASM1.TAB line 0305: label value misalligned.           (CMP)
TASM1.TAB line 0305: unrecognized instruction.          (CMP)
0306   0000             CMP D,@                         C5    3    NOP     1
TASM1.TAB line 0306: Label not found: (CMP)
TASM1.TAB line 0306: label value misalligned.           (CMP)
TASM1.TAB line 0306: unrecognized instruction.          (CMP)
0307   0000             JZ @                            C6    3    NOP     1
TASM1.TAB line 0307: Label not found: (JZ)
TASM1.TAB line 0307: label value misalligned.           (JZ)
TASM1.TAB line 0307: unrecognized directive.            (JZ)
0308   0000             JE @                            C6    3    NOP     1
TASM1.TAB line 0308: Label not found: (JE)
TASM1.TAB line 0308: label value misalligned.           (JE)
TASM1.TAB line 0308: unrecognized directive.            (JE)
0309   0000             JNZ @                           C7    3    NOP     1
TASM1.TAB line 0309: Label not found: (JNZ)
TASM1.TAB line 0309: label value misalligned.           (JNZ)
TASM1.TAB line 0309: unrecognized directive.            (JNZ)
0310   0000             JNE @                           C7    3    NOP     1
TASM1.TAB line 0310: Label not found: (JNE)
TASM1.TAB line 0310: label value misalligned.           (JNE)
TASM1.TAB line 0310: unrecognized directive.            (JNE)
0311   0000             JC @                            C8    3    NOP     1
TASM1.TAB line 0311: Label not found: (JC)
TASM1.TAB line 0311: label value misalligned.           (JC)
TASM1.TAB line 0311: unrecognized directive.            (JC)
0312   0000             JLU @                           C8    3    NOP     1
TASM1.TAB line 0312: Label not found: (JLU)
TASM1.TAB line 0312: label value misalligned.           (JLU)
TASM1.TAB line 0312: unrecognized directive.            (JLU)
0313   0000             JNC @                           C9    3    NOP     1
TASM1.TAB line 0313: Label not found: (JNC)
TASM1.TAB line 0313: label value misalligned.           (JNC)
TASM1.TAB line 0313: unrecognized directive.            (JNC)
0314   0000             JGEU @                          C9    3    NOP     1
TASM1.TAB line 0314: Label not found: (JGEU)
TASM1.TAB line 0314: label value misalligned.           (JGEU)
TASM1.TAB line 0314: unrecognized directive.            (JGEU)
0315   0000             JNEG @                          CA    3    NOP     1
TASM1.TAB line 0315: Label not found: (JNEG)
TASM1.TAB line 0315: label value misalligned.           (JNEG)
TASM1.TAB line 0315: unrecognized directive.            (JNEG)
0316   0000             JPOS @                          CB    3    NOP     1
TASM1.TAB line 0316: Label not found: (JPOS)
TASM1.TAB line 0316: label value misalligned.           (JPOS)
TASM1.TAB line 0316: unrecognized directive.            (JPOS)
0317   0000             JL @                            CC    3    NOP     1
TASM1.TAB line 0317: Label not found: (JL)
TASM1.TAB line 0317: label value misalligned.           (JL)
TASM1.TAB line 0317: unrecognized directive.            (JL)
0318   0000             JLE @                           CD    3    NOP     1
TASM1.TAB line 0318: Label not found: (JLE)
TASM1.TAB line 0318: label value misalligned.           (JLE)
TASM1.TAB line 0318: unrecognized directive.            (JLE)
0319   0000             JG @                            CE    3    NOP     1
TASM1.TAB line 0319: Label not found: (JG)
TASM1.TAB line 0319: label value misalligned.           (JG)
TASM1.TAB line 0319: unrecognized directive.            (JG)
0320   0000             JGE @                           CF    3    NOP     1
TASM1.TAB line 0320: Label not found: (JGE)
TASM1.TAB line 0320: label value misalligned.           (JGE)
TASM1.TAB line 0320: unrecognized directive.            (JGE)
0321   0000             JLEU @                          D0    3    NOP     1
TASM1.TAB line 0321: Label not found: (JLEU)
TASM1.TAB line 0321: label value misalligned.           (JLEU)
TASM1.TAB line 0321: unrecognized directive.            (JLEU)
0322   0000             JGU @                           D1    3    NOP     1
TASM1.TAB line 0322: Label not found: (JGU)
TASM1.TAB line 0322: label value misalligned.           (JGU)
TASM1.TAB line 0322: unrecognized directive.            (JGU)
0323   0000             
0324   0000             PUSH BYTE@                      DBFD  3    NOP     1  
TASM1.TAB line 0324: Label not found: (PUSH)
TASM1.TAB line 0324: label value misalligned.           (PUSH)
TASM1.TAB line 0324: unrecognized instruction.          (PUSH)
0325   0000             PUSH WORD@                      D7FD  4    NOP     1
TASM1.TAB line 0325: Label not found: (PUSH)
TASM1.TAB line 0325: label value misalligned.           (PUSH)
TASM1.TAB line 0325: unrecognized instruction.          (PUSH)
0326   0000             
0327   0000             PUSH BP                         D2    1    NOP     1
TASM1.TAB line 0327: Label not found: (PUSH)
TASM1.TAB line 0327: label value misalligned.           (PUSH)
TASM1.TAB line 0327: unrecognized instruction.          (PUSH)
0328   0000             ADD SI,@                        D3    3    NOP     1
TASM1.