###############################################################################
#
# IAR ELF Linker V7.50.1.10123/W32 for ARM                27/Jan/2017  14:44:14
# Copyright 2007-2015 IAR Systems AB.
#
#    Output file  =  
#        C:\Users\linask\Desktop\STM32_FSMC_New\Debug\Exe\STM32F429_FSMC.out
#    Map file     =  
#        C:\Users\linask\Desktop\STM32_FSMC_New\Debug\List\STM32F429_FSMC.map
#    Command line =  
#        C:\Users\linask\Desktop\STM32_FSMC_New\Debug\Obj\dhcp.o
#        C:\Users\linask\Desktop\STM32_FSMC_New\Debug\Obj\main.o
#        C:\Users\linask\Desktop\STM32_FSMC_New\Debug\Obj\misc.o
#        C:\Users\linask\Desktop\STM32_FSMC_New\Debug\Obj\socket.o
#        C:\Users\linask\Desktop\STM32_FSMC_New\Debug\Obj\startup_stm32f429_439xx.o
#        C:\Users\linask\Desktop\STM32_FSMC_New\Debug\Obj\stm32f429_sram.o
#        C:\Users\linask\Desktop\STM32_FSMC_New\Debug\Obj\stm32f4xx_adc.o
#        C:\Users\linask\Desktop\STM32_FSMC_New\Debug\Obj\stm32f4xx_crc.o
#        C:\Users\linask\Desktop\STM32_FSMC_New\Debug\Obj\stm32f4xx_dac.o
#        C:\Users\linask\Desktop\STM32_FSMC_New\Debug\Obj\stm32f4xx_dbgmcu.o
#        C:\Users\linask\Desktop\STM32_FSMC_New\Debug\Obj\stm32f4xx_dma.o
#        C:\Users\linask\Desktop\STM32_FSMC_New\Debug\Obj\stm32f4xx_dma2d.o
#        C:\Users\linask\Desktop\STM32_FSMC_New\Debug\Obj\stm32f4xx_exti.o
#        C:\Users\linask\Desktop\STM32_FSMC_New\Debug\Obj\stm32f4xx_flash.o
#        C:\Users\linask\Desktop\STM32_FSMC_New\Debug\Obj\stm32f4xx_fmc.o
#        C:\Users\linask\Desktop\STM32_FSMC_New\Debug\Obj\stm32f4xx_gpio.o
#        C:\Users\linask\Desktop\STM32_FSMC_New\Debug\Obj\stm32f4xx_i2c.o
#        C:\Users\linask\Desktop\STM32_FSMC_New\Debug\Obj\stm32f4xx_it.o
#        C:\Users\linask\Desktop\STM32_FSMC_New\Debug\Obj\stm32f4xx_iwdg.o
#        C:\Users\linask\Desktop\STM32_FSMC_New\Debug\Obj\stm32f4xx_pwr.o
#        C:\Users\linask\Desktop\STM32_FSMC_New\Debug\Obj\stm32f4xx_rcc.o
#        C:\Users\linask\Desktop\STM32_FSMC_New\Debug\Obj\stm32f4xx_rng.o
#        C:\Users\linask\Desktop\STM32_FSMC_New\Debug\Obj\stm32f4xx_spi.o
#        C:\Users\linask\Desktop\STM32_FSMC_New\Debug\Obj\stm32f4xx_syscfg.o
#        C:\Users\linask\Desktop\STM32_FSMC_New\Debug\Obj\stm32f4xx_tim.o
#        C:\Users\linask\Desktop\STM32_FSMC_New\Debug\Obj\stm32f4xx_usart.o
#        C:\Users\linask\Desktop\STM32_FSMC_New\Debug\Obj\stm32f4xx_wwdg.o
#        C:\Users\linask\Desktop\STM32_FSMC_New\Debug\Obj\system_stm32f4xx.o
#        C:\Users\linask\Desktop\STM32_FSMC_New\Debug\Obj\w5300.o -o
#        C:\Users\linask\Desktop\STM32_FSMC_New\Debug\Exe\STM32F429_FSMC.out
#        --map
#        C:\Users\linask\Desktop\STM32_FSMC_New\Debug\List\STM32F429_FSMC.map
#        --config "C:\Program Files (x86)\IAR Systems\Embedded Workbench
#        7.3\arm\config\linker\ST\stm32f429xI.icf" --semihosting --entry
#        __iar_program_start "C:\Program Files (x86)\IAR Systems\Embedded
#        Workbench 7.3\arm\CMSIS\Lib\IAR\iar_cortexM4lf_math.a" --vfe
#
###############################################################################

*******************************************************************************
*** RUNTIME MODEL ATTRIBUTES
***

CppFlavor       = *
__SystemLibrary = DLib


*******************************************************************************
*** PLACEMENT SUMMARY
***

"A1":  place at 0x08000000 { ro section .intvec };
"P1":  place in [from 0x08000000 to 0x081fffff] { ro };
"P2":  place in [from 0x20000000 to 0x2002ffff] { rw, block CSTACK, block HEAP };

  Section            Kind        Address     Size  Object
  -------            ----        -------     ----  ------
"A1":                                       0x1ac
  .intvec            ro code  0x08000000    0x1ac  startup_stm32f429_439xx.o [1]
                            - 0x080001ac    0x1ac

"P1":                                      0x1933
  .text              ro code  0x080001ac    0x668  w5300.o [1]
  .text              ro code  0x08000814    0x440  main.o [1]
  .text              ro code  0x08000c54    0x274  stm32f429_sram.o [1]
  .text              ro code  0x08000ec8     0x3a  ABImemset48.o [5]
  .text              ro code  0x08000f02     0x76  lz77_init_single.o [5]
  .text              ro code  0x08000f78    0x1f0  socket.o [1]
  .text              ro code  0x08001168     0x2c  stm32f4xx_rcc.o [1]
  .text              ro code  0x08001194     0x9a  stm32f4xx_gpio.o [1]
  .text              ro code  0x0800122e     0x12  stm32f4xx_it.o [1]
  .text              ro code  0x08001240    0x16c  stm32f4xx_fmc.o [1]
  .text              ro code  0x080013ac    0x104  system_stm32f4xx.o [1]
  .text              ro code  0x080014b0     0x40  zero_init3.o [5]
  .text              ro code  0x080014f0     0x28  data_init.o [5]
  .text              ro code  0x08001518     0x22  fpinit_M.o [4]
  .iar.init_table    const    0x0800153c     0x20  - Linker created -
  .text              ro code  0x0800155c     0x1a  cmain.o [5]
  .text              ro code  0x08001576      0x4  low_level_init.o [3]
  .text              ro code  0x0800157a      0x4  exit.o [3]
  .text              ro code  0x08001580      0xa  cexit.o [5]
  .text              ro code  0x0800158c     0x14  exit.o [6]
  .text              ro code  0x080015a0     0x10  startup_stm32f429_439xx.o [1]
  .text              ro code  0x080015b0      0xc  cstartup_M.o [5]
  .text              ro code  0x080015bc      0x4  startup_stm32f429_439xx.o [1]
  .text              ro code  0x080015c0      0x4  startup_stm32f429_439xx.o [1]
  .text              ro code  0x080015c4      0x4  startup_stm32f429_439xx.o [1]
  .text              ro code  0x080015c8      0x4  startup_stm32f429_439xx.o [1]
  .text              ro code  0x080015cc      0x4  startup_stm32f429_439xx.o [1]
  .text              ro code  0x080015d0      0x4  startup_stm32f429_439xx.o [1]
  .text              ro code  0x080015d4      0x4  startup_stm32f429_439xx.o [1]
  .text              ro code  0x080015d8      0x4  startup_stm32f429_439xx.o [1]
  .text              ro code  0x080015dc      0x4  startup_stm32f429_439xx.o [1]
  .text              ro code  0x080015e0      0x4  startup_stm32f429_439xx.o [1]
  .text              ro code  0x080015e4      0x4  startup_stm32f429_439xx.o [1]
  .text              ro code  0x080015e8      0x4  startup_stm32f429_439xx.o [1]
  .text              ro code  0x080015ec      0x4  startup_stm32f429_439xx.o [1]
  .text              ro code  0x080015f0      0x4  startup_stm32f429_439xx.o [1]
  .text              ro code  0x080015f4      0x4  startup_stm32f429_439xx.o [1]
  .text              ro code  0x080015f8      0x4  startup_stm32f429_439xx.o [1]
  .text              ro code  0x080015fc      0x4  startup_stm32f429_439xx.o [1]
  .text              ro code  0x08001600      0x4  startup_stm32f429_439xx.o [1]
  .text              ro code  0x08001604      0x4  startup_stm32f429_439xx.o [1]
  .text              ro code  0x08001608      0x4  startup_stm32f429_439xx.o [1]
  .text              ro code  0x0800160c      0x4  startup_stm32f429_439xx.o [1]
  .text              ro code  0x08001610      0x4  startup_stm32f429_439xx.o [1]
  .text              ro code  0x08001614      0x4  startup_stm32f429_439xx.o [1]
  .text              ro code  0x08001618      0x4  startup_stm32f429_439xx.o [1]
  .text              ro code  0x0800161c      0x4  startup_stm32f429_439xx.o [1]
  .text              ro code  0x08001620      0x4  startup_stm32f429_439xx.o [1]
  .text              ro code  0x08001624      0x4  startup_stm32f429_439xx.o [1]
  .text              ro code  0x08001628      0x4  startup_stm32f429_439xx.o [1]
  .text              ro code  0x0800162c      0x4  startup_stm32f429_439xx.o [1]
  .text              ro code  0x08001630      0x4  startup_stm32f429_439xx.o [1]
  .text              ro code  0x08001634      0x4  startup_stm32f429_439xx.o [1]
  .text              ro code  0x08001638      0x4  startup_stm32f429_439xx.o [1]
  .text              ro code  0x0800163c      0x4  startup_stm32f429_439xx.o [1]
  .text              ro code  0x08001640      0x4  startup_stm32f429_439xx.o [1]
  .text              ro code  0x08001644      0x4  startup_stm32f429_439xx.o [1]
  .text              ro code  0x08001648      0x4  startup_stm32f429_439xx.o [1]
  .text              ro code  0x0800164c      0x4  startup_stm32f429_439xx.o [1]
  .text              ro code  0x08001650      0x4  startup_stm32f429_439xx.o [1]
  .text              ro code  0x08001654      0x4  startup_stm32f429_439xx.o [1]
  .text              ro code  0x08001658      0x4  startup_stm32f429_439xx.o [1]
  .text              ro code  0x0800165c      0x4  startup_stm32f429_439xx.o [1]
  .text              ro code  0x08001660      0x4  startup_stm32f429_439xx.o [1]
  .text              ro code  0x08001664      0x4  startup_stm32f429_439xx.o [1]
  .text              ro code  0x08001668      0x4  startup_stm32f429_439xx.o [1]
  .text              ro code  0x0800166c      0x4  startup_stm32f429_439xx.o [1]
  .text              ro code  0x08001670      0x4  startup_stm32f429_439xx.o [1]
  .text              ro code  0x08001674      0x4  startup_stm32f429_439xx.o [1]
  .text              ro code  0x08001678      0x4  startup_stm32f429_439xx.o [1]
  .text              ro code  0x0800167c      0x4  startup_stm32f429_439xx.o [1]
  .text              ro code  0x08001680      0x4  startup_stm32f429_439xx.o [1]
  .text              ro code  0x08001684      0x4  startup_stm32f429_439xx.o [1]
  .text              ro code  0x08001688      0x4  startup_stm32f429_439xx.o [1]
  .text              ro code  0x0800168c      0x4  startup_stm32f429_439xx.o [1]
  .text              ro code  0x08001690      0x4  startup_stm32f429_439xx.o [1]
  .text              ro code  0x08001694      0x4  startup_stm32f429_439xx.o [1]
  .text              ro code  0x08001698      0x4  startup_stm32f429_439xx.o [1]
  .text              ro code  0x0800169c      0x4  startup_stm32f429_439xx.o [1]
  .text              ro code  0x080016a0      0x4  startup_stm32f429_439xx.o [1]
  .text              ro code  0x080016a4      0x4  startup_stm32f429_439xx.o [1]
  .text              ro code  0x080016a8      0x4  startup_stm32f429_439xx.o [1]
  .text              ro code  0x080016ac      0x4  startup_stm32f429_439xx.o [1]
  .text              ro code  0x080016b0      0x4  startup_stm32f429_439xx.o [1]
  .text              ro code  0x080016b4      0x4  startup_stm32f429_439xx.o [1]
  .text              ro code  0x080016b8      0x4  startup_stm32f429_439xx.o [1]
  .text              ro code  0x080016bc      0x4  startup_stm32f429_439xx.o [1]
  .text              ro code  0x080016c0      0x4  startup_stm32f429_439xx.o [1]
  .text              ro code  0x080016c4      0x4  startup_stm32f429_439xx.o [1]
  .text              ro code  0x080016c8      0x4  startup_stm32f429_439xx.o [1]
  .text              ro code  0x080016cc      0x4  startup_stm32f429_439xx.o [1]
  .text              ro code  0x080016d0      0x4  startup_stm32f429_439xx.o [1]
  .text              ro code  0x080016d4      0x4  startup_stm32f429_439xx.o [1]
  .text              ro code  0x080016d8      0x4  startup_stm32f429_439xx.o [1]
  .text              ro code  0x080016dc      0x4  startup_stm32f429_439xx.o [1]
  .text              ro code  0x080016e0      0x4  startup_stm32f429_439xx.o [1]
  .text              ro code  0x080016e4      0x4  startup_stm32f429_439xx.o [1]
  .text              ro code  0x080016e8      0x4  startup_stm32f429_439xx.o [1]
  .text              ro code  0x080016ec      0x4  startup_stm32f429_439xx.o [1]
  .text              ro code  0x080016f0      0x4  startup_stm32f429_439xx.o [1]
  .text              ro code  0x080016f4      0x4  startup_stm32f429_439xx.o [1]
  .text              ro code  0x080016f8      0x4  startup_stm32f429_439xx.o [1]
  .text              ro code  0x080016fc      0x4  startup_stm32f429_439xx.o [1]
  .text              ro code  0x08001700      0x4  startup_stm32f429_439xx.o [1]
  .text              ro code  0x08001704      0x4  startup_stm32f429_439xx.o [1]
  .text              ro code  0x08001708      0x4  startup_stm32f429_439xx.o [1]
  .text              ro code  0x0800170c      0x4  startup_stm32f429_439xx.o [1]
  .text              ro code  0x08001710      0x4  startup_stm32f429_439xx.o [1]
  .text              ro code  0x08001714      0x4  startup_stm32f429_439xx.o [1]
  .text              ro code  0x08001718      0x4  startup_stm32f429_439xx.o [1]
  .text              ro code  0x0800171c      0x4  startup_stm32f429_439xx.o [1]
  .text              ro code  0x08001720      0x4  startup_stm32f429_439xx.o [1]
  .text              ro code  0x08001724      0x4  startup_stm32f429_439xx.o [1]
  .rodata            const    0x08001728      0x0  zero_init3.o [5]
  .rodata            const    0x08001728      0x0  lz77_init_single.o [5]
  Initializer bytes  const    0x08001728    0x3b7  <for P2-1>
                            - 0x08001adf   0x1933

"P2", part 1 of 3:                        0x14054
  P2-1                        0x20000000  0x14054  <Init block>
    .data            inited   0x20000000  0x1403c  main.o [1]
    .data            inited   0x2001403c      0xc  main.o [1]
    .data            inited   0x20014048      0xc  socket.o [1]
                            - 0x20014054  0x14054

"P2", part 2 of 3:                         0x2000
  CSTACK                      0x20014058   0x2000  <Block>
    CSTACK           uninit   0x20014058   0x2000  <Block tail>
                            - 0x20016058   0x2000

"P2", part 3 of 3:                           0x50
  .bss               zero     0x20016058     0x40  w5300.o [1]
  .bss               zero     0x20016098      0xc  w5300.o [1]
  .bss               zero     0x200160a4      0x4  w5300.o [1]
                            - 0x200160a8     0x50


*******************************************************************************
*** INIT TABLE
***

          Address     Size
          -------     ----
Zero (__iar_zero_init3)
    1 destination range, total size 0x50:
          0x20016058     0x50

Copy/lz77 (__iar_lz77_init_single3)
    1 source range, total size 0x3b7 (1% of destination):
          0x08001728    0x3b7
    1 destination range, total size 0x14054:
          0x20000000  0x14054



*******************************************************************************
*** MODULE SUMMARY
***

    Module                     ro code  ro data  rw data
    ------                     -------  -------  -------
C:\Users\linask\Desktop\STM32_FSMC_New\Debug\Obj: [1]
    main.o                       1 088      950   81 992
    socket.o                       496        1       12
    startup_stm32f429_439xx.o      808
    stm32f429_sram.o               628
    stm32f4xx_fmc.o                364
    stm32f4xx_gpio.o               154
    stm32f4xx_it.o                  18
    stm32f4xx_rcc.o                 44
    system_stm32f4xx.o             260
    w5300.o                      1 640                80
    ----------------------------------------------------
    Total:                       5 500      951   82 084

command line: [2]
    ----------------------------------------------------
    Total:

dl7M_tln.a: [3]
    exit.o                           4
    low_level_init.o                 4
    ----------------------------------------------------
    Total:                           8

m7M_tls.a: [4]
    fpinit_M.o                      34
    ----------------------------------------------------
    Total:                          34

rt7M_tl.a: [5]
    ABImemset48.o                   58
    cexit.o                         10
    cmain.o                         26
    cstartup_M.o                    12
    data_init.o                     40
    lz77_init_single.o             118
    zero_init3.o                    64
    ----------------------------------------------------
    Total:                         328

shb_l.a: [6]
    exit.o                          20
    ----------------------------------------------------
    Total:                          20

    Gaps                             4        2
    Linker created                           32    8 192
--------------------------------------------------------
    Grand Total:                 5 894      985   90 276


*******************************************************************************
*** ENTRY LIST
***

Entry                      Address     Size  Type      Object
-----                      -------     ----  ----      ------
.iar.init_table$$Base   0x0800153c            --   Gb  - Linker created -
.iar.init_table$$Limit  0x0800155c            --   Gb  - Linker created -
?main                   0x0800155d           Code  Gb  cmain.o [5]
BusFault_Handler        0x08001235      0x2  Code  Gb  stm32f4xx_it.o [1]
CSTACK$$Base            0x20014058            --   Gb  - Linker created -
CSTACK$$Limit           0x20016058            --   Gb  - Linker created -
DebugMon_Handler        0x0800123b      0x2  Code  Gb  stm32f4xx_it.o [1]
Delay                   0x08000bf5     0x3e  Code  Gb  main.o [1]
FMC_NORSRAMCmd          0x08001381     0x1c  Code  Gb  stm32f4xx_fmc.o [1]
FMC_NORSRAMInit         0x08001241    0x140  Code  Gb  stm32f4xx_fmc.o [1]
GPIO_Init               0x08001195     0x72  Code  Gb  stm32f4xx_gpio.o [1]
GPIO_PinAFConfig        0x08001207     0x28  Code  Gb  stm32f4xx_gpio.o [1]
HardFault_Handler       0x08001231      0x2  Code  Gb  stm32f4xx_it.o [1]
ID                      0x2001401c      0x2  Data  Gb  main.o [1]
IINCHIP_READ            0x080001ad     0x12  Code  Gb  w5300.o [1]
IINCHIP_WRITE           0x080001c1     0x14  Code  Gb  w5300.o [1]
IP_VAR                  0x20016098      0x4  Data  Lc  w5300.o [1]
MemManage_Handler       0x08001233      0x2  Code  Gb  stm32f4xx_it.o [1]
NMI_Handler             0x0800122f      0x2  Code  Gb  stm32f4xx_it.o [1]
PORT_W5300              0x2001401e      0x2  Data  Gb  main.o [1]
PendSV_Handler          0x0800123d      0x2  Code  Gb  stm32f4xx_it.o [1]
RCC_AHB1PeriphClockCmd  0x08001169     0x12  Code  Gb  stm32f4xx_rcc.o [1]
RCC_AHB3PeriphClockCmd  0x0800117b     0x12  Code  Gb  stm32f4xx_rcc.o [1]
RXMEM_SIZE              0x20016078     0x20  Data  Gb  w5300.o [1]
Region$$Table$$Base     0x0800153c            --   Gb  - Linker created -
Region$$Table$$Limit    0x0800155c            --   Gb  - Linker created -
Rx_count                0x20014040      0x4  Data  Gb  main.o [1]
Rx_count_total          0x2001402c      0x4  Data  Gb  main.o [1]
SRAM_GPIOConfig         0x08000d41    0x176  Code  Gb  stm32f429_sram.o [1]
SRAM_Init               0x08000c55     0xec  Code  Gb  stm32f429_sram.o [1]
SUBN_VAR                0x200160a4      0x4  Data  Lc  w5300.o [1]
SVC_Handler             0x08001239      0x2  Code  Gb  stm32f4xx_it.o [1]
SysTick_Handler         0x0800123f      0x2  Code  Gb  stm32f4xx_it.o [1]
SystemInit              0x080013ad     0xec  Code  Gb  system_stm32f4xx.o [1]
TXMEM_SIZE              0x20016058     0x20  Data  Gb  w5300.o [1]
TxSendcount             0x20014020      0x2  Data  Gb  main.o [1]
TxpacketCount           0x20014038      0x4  Data  Gb  main.o [1]
UsageFault_Handler      0x08001237      0x2  Code  Gb  stm32f4xx_it.o [1]
__aeabi_memset4         0x08000ec9           Code  Gb  ABImemset48.o [5]
__aeabi_memset8         0x08000ec9           Code  Gb  ABImemset48.o [5]
__cmain                 0x0800155d           Code  Gb  cmain.o [5]
__exit                  0x0800158d     0x14  Code  Gb  exit.o [6]
__iar_Memset4_word      0x08000ed1           Code  Gb  ABImemset48.o [5]
__iar_Memset8_word      0x08000ed1           Code  Gb  ABImemset48.o [5]
__iar_data_init3        0x080014f1     0x28  Code  Gb  data_init.o [5]
__iar_init_vfp          0x08001519           Code  Gb  fpinit_M.o [4]
__iar_lz77_init_single3
                        0x08000f03     0x76  Code  Gb  lz77_init_single.o [5]
__iar_program_start     0x080015b1           Code  Gb  cstartup_M.o [5]
__iar_zero_init3        0x080014b1     0x40  Code  Gb  zero_init3.o [5]
__low_level_init        0x08001577      0x4  Code  Gb  low_level_init.o [3]
__vector_table          0x08000000           Data  Gb  startup_stm32f429_439xx.o [1]
_call_main              0x08001569           Code  Gb  cmain.o [5]
_exit                   0x08001581           Code  Gb  cexit.o [5]
_main                   0x08001573           Code  Gb  cmain.o [5]
applySUBR               0x080002f5     0x28  Code  Gb  w5300.o [1]
check_sendok_flag       0x2001404c      0x8  Data  Gb  socket.o [1]
clearSUBR               0x0800031d     0x5a  Code  Gb  w5300.o [1]
close                   0x08000fb5    0x102  Code  Gb  socket.o [1]
data_buf                0x2001001c   0x4000  Data  Gb  main.o [1]
disconnect              0x080010b7      0x6  Code  Gb  socket.o [1]
disconnectreg           0x20014034      0x4  Data  Gb  main.o [1]
exit                    0x0800157b      0x4  Code  Gb  exit.o [3]
fmc_adr                 0x200160a0      0x4  Data  Gb  w5300.o [1]
fmc_data                0x2001609c      0x2  Data  Gb  w5300.o [1]
getGAR                  0x08000259     0x2a  Code  Gb  w5300.o [1]
getIDR                  0x080003d3     0x12  Code  Gb  w5300.o [1]
getIINCHIP_TxMAX        0x080007cf      0x8  Code  Gb  w5300.o [1]
getMR                   0x080001d5      0x8  Code  Gb  w5300.o [1]
getSHAR                 0x080001eb     0x38  Code  Gb  w5300.o [1]
getSIPR                 0x08000377     0x2a  Code  Gb  w5300.o [1]
getSUBR                 0x080002a9     0x16  Code  Gb  w5300.o [1]
getSn_IR                0x08000423     0x1a  Code  Gb  w5300.o [1]
getSn_MR                0x080003e5     0x1a  Code  Gb  w5300.o [1]
getSn_RX_RSR            0x08000527     0x5e  Code  Gb  w5300.o [1]
getSn_SSR               0x08000445     0x64  Code  Gb  w5300.o [1]
getSn_TX_FSR            0x080004c9     0x5e  Code  Gb  w5300.o [1]
gw                      0x20010014      0x4  Data  Gb  main.o [1]
iinchip_init            0x0800058d     0x18  Code  Gb  w5300.o [1]
iinchip_source_port     0x20014048      0x2  Data  Gb  socket.o [1]
increment               0x20000000  0x10000  Data  Gb  main.o [1]
ip                      0x20010010      0x4  Data  Gb  main.o [1]
ip_temp                 0x20010008      0x8  Data  Gb  main.o [1]
listen                  0x080010bd     0x1c  Code  Gb  socket.o [1]
mac                     0x20010000      0x8  Data  Gb  main.o [1]
main                    0x08000815    0x3de  Code  Gb  main.o [1]
memtype                 0x20014022      0x2  Data  Gb  main.o [1]
packet_count            0x20014030      0x4  Data  Gb  main.o [1]
pcip                    0x20014044      0x4  Data  Gb  main.o [1]
send                    0x080010d9     0x88  Code  Gb  socket.o [1]
sendokreg               0x2001404a      0x2  Data  Gb  socket.o [1]
setGAR                  0x08000283     0x26  Code  Gb  w5300.o [1]
setIMR                  0x080001e5      0x6  Code  Gb  w5300.o [1]
setMR                   0x080001dd      0x8  Code  Gb  w5300.o [1]
setRCR                  0x080003cd      0x6  Code  Gb  w5300.o [1]
setRTR                  0x080003c7      0x6  Code  Gb  w5300.o [1]
setSHAR                 0x08000223     0x36  Code  Gb  w5300.o [1]
setSIPR                 0x080003a1     0x26  Code  Gb  w5300.o [1]
setSUBR                 0x080002bf     0x36  Code  Gb  w5300.o [1]
setSn_CR                0x080003ff     0x24  Code  Gb  w5300.o [1]
setSn_IR                0x0800043d      0x8  Code  Gb  w5300.o [1]
setSn_TTLR              0x08000585      0x8  Code  Gb  w5300.o [1]
setSn_TX_WRSR           0x080004a9     0x20  Code  Gb  w5300.o [1]
sn                      0x20010018      0x4  Data  Gb  main.o [1]
snreg                   0x20014028      0x4  Data  Gb  main.o [1]
socket                  0x08000f79     0x3c  Code  Gb  socket.o [1]
sysinit                 0x080005a5    0x1fc  Code  Gb  w5300.o [1]
update                  0x20014024      0x4  Data  Gb  main.o [1]
wait_10ms               0x08000803     0x12  Code  Gb  w5300.o [1]
wait_1ms                0x08000801      0x2  Code  Gb  w5300.o [1]
wiz_write_buf           0x080007a5     0x2a  Code  Gb  w5300.o [1]


[1] = C:\Users\linask\Desktop\STM32_FSMC_New\Debug\Obj
[2] = command line
[3] = dl7M_tln.a
[4] = m7M_tls.a
[5] = rt7M_tl.a
[6] = shb_l.a

   5 894 bytes of readonly  code memory
     985 bytes of readonly  data memory
  90 276 bytes of readwrite data memory

Errors: none
Warnings: none
