 KRNL32

 Timestamp is 4c6acfef (Tue Aug 17 14:07:43 2010)

 Preferred load address is c0000000

 Start         Length     Name                   Class
 0001:00000000 000029a5H .text                   CODE
 0002:00000000 000006fcH .rdata                  DATA
 0003:00000000 00000004H .CRT$XCA                DATA
 0003:00000004 00000004H .CRT$XCZ                DATA
 0003:00000008 0000016cH .data                   DATA
 0003:00000178 000008b8H .bss                    DATA
 0004:00000000 00000058H .rsrc$01                DATA
 0004:00000060 000003c0H .rsrc$02                DATA

  Address         Publics by Value              Rva+Base       Lib:Object

 0000:00000000       ___safe_se_handler_count   00000000     <absolute>
 0000:00000000       ___safe_se_handler_table   00000000     <absolute>
 0001:00000000       ?kernel_entry@@YAXPAUmultiboot_info@@@Z c0000400 f   entry.obj
 0001:00000040       ?init@@YAXPAUmultiboot_info@@@Z c0000440 f   main.obj
 0001:000001d0       ?sleep@@YAXH@Z             c00005d0 f   main.obj
 0001:00000200       ?get_cmd@@YAXPADH@Z        c0000600 f   main.obj
 0001:00000320       ?cmd_read_sect@@YAXXZ      c0000720 f   main.obj
 0001:000003f0       ?run_cmd@@YA_NPAD@Z        c00007f0 f   main.obj
 0001:000004c0       ?run@@YAXXZ                c00008c0 f   main.obj
 0001:000004f0       ?kmain@@YAHPAUmultiboot_info@@@Z c00008f0 f   main.obj
 0001:00000550       ?scroll@@YAXXZ             c0000950 f   DebugDisplay.obj
 0001:000005c0       ?DebugPutc@@YAXE@Z         c00009c0 f   DebugDisplay.obj
 0001:00000660       ?itoa@@YAXIIPAD@Z          c0000a60 f   DebugDisplay.obj
 0001:000006d0       ?DebugSetColor@@YAII@Z     c0000ad0 f   DebugDisplay.obj
 0001:000006f0       ?DebugGotoXY@@YAXII@Z      c0000af0 f   DebugDisplay.obj
 0001:00000720       ?DebugGetXY@@YAXPAI0@Z     c0000b20 f   DebugDisplay.obj
 0001:00000750       ?DebugGetHorz@@YAHXZ       c0000b50 f   DebugDisplay.obj
 0001:00000760       ?DebugClrScr@@YAXE@Z       c0000b60 f   DebugDisplay.obj
 0001:000007b0       ?DebugPuts@@YAXPAD@Z       c0000bb0 f   DebugDisplay.obj
 0001:000007f0       ?DebugPrintf@@YAHPBDZZ     c0000bf0 f   DebugDisplay.obj
 0001:000009a0       ?divide_by_zero_fault@@YAXIIII@Z c0000da0 f   exception.obj
 0001:000009d0       ?single_step_trap@@YAXIII@Z c0000dd0 f   exception.obj
 0001:000009f0       ?nmi_trap@@YAXIII@Z        c0000df0 f   exception.obj
 0001:00000a10       ?breakpoint_trap@@YAXIII@Z c0000e10 f   exception.obj
 0001:00000a30       ?overflow_trap@@YAXIII@Z   c0000e30 f   exception.obj
 0001:00000a50       ?bounds_check_fault@@YAXIII@Z c0000e50 f   exception.obj
 0001:00000a70       ?invalid_opcode_fault@@YAXIII@Z c0000e70 f   exception.obj
 0001:00000a90       ?no_device_fault@@YAXIII@Z c0000e90 f   exception.obj
 0001:00000ab0       ?double_fault_abort@@YAXIIII@Z c0000eb0 f   exception.obj
 0001:00000ad0       ?invalid_tss_fault@@YAXIIII@Z c0000ed0 f   exception.obj
 0001:00000af0       ?no_segment_fault@@YAXIIII@Z c0000ef0 f   exception.obj
 0001:00000b10       ?stack_fault@@YAXIIII@Z    c0000f10 f   exception.obj
 0001:00000b30       ?general_protection_fault@@YAXIIII@Z c0000f30 f   exception.obj
 0001:00000b50       ?page_fault@@YAXIIII@Z     c0000f50 f   exception.obj
 0001:00000b70       ?fpu_fault@@YAXIII@Z       c0000f70 f   exception.obj
 0001:00000b90       ?alignment_check_fault@@YAXIIII@Z c0000f90 f   exception.obj
 0001:00000bb0       ?machine_check_abort@@YAXIII@Z c0000fb0 f   exception.obj
 0001:00000bd0       ?simd_fpu_fault@@YAXIII@Z  c0000fd0 f   exception.obj
 0001:00000bf0       ?pmmngr_init_region@@YAXII@Z c0000ff0 f   mmngr_phys.obj
 0001:00000c60       ?pmmngr_deinit_region@@YAXII@Z c0001060 f   mmngr_phys.obj
 0001:00000cd0       ?pmmngr_paging_enable@@YAX_N@Z c00010d0 f   mmngr_phys.obj
 0001:00000d00       ?pmmngr_load_PDBR@@YAXI@Z  c0001100 f   mmngr_phys.obj
 0001:00000d10       ?mmap_first_free@@YAHXZ    c0001110 f   mmngr_phys.obj
 0001:00000d60       ?mmap_first_free_s@@YAHI@Z c0001160 f   mmngr_phys.obj
 0001:00000e70       ?pmmngr_init@@YAXII@Z      c0001270 f   mmngr_phys.obj
 0001:00000eb0       ?pmmngr_alloc_block@@YAPAXXZ c00012b0 f   mmngr_phys.obj
 0001:00000f10       ?pmmngr_alloc_blocks@@YAPAXI@Z c0001310 f   mmngr_phys.obj
 0001:00000f90       ?vmmngr_initialize@@YAXXZ  c0001390 f   mmngr_virtual.obj
 0001:000010e0       ?kernel_panic@@YAXPBDZZ    c00014e0 f   panic.obj
 0001:00001130       ?pd_entry_add_attrib@@YAXPAII@Z c0001530 f i vmmngr_pde.obj
 0001:00001130       ?pt_entry_add_attrib@@YAXPAII@Z c0001530 f i vmmngr_pte.obj
 0001:00001140       ?pd_entry_set_frame@@YAXPAII@Z c0001540 f i vmmngr_pde.obj
 0001:00001140       ?pt_entry_set_frame@@YAXPAII@Z c0001540 f i vmmngr_pte.obj
 0001:00001160       ?kkybrd_set_leds@@YAX_N00@Z c0001560 f   keyboard:kybrd.obj
 0001:000011c0       ?kkybrd_get_last_key@@YA?AW4KEYCODE@@XZ c00015c0 f   keyboard:kybrd.obj
 0001:000011e0       ?kkybrd_discard_last_key@@YAXXZ c00015e0 f   keyboard:kybrd.obj
 0001:000011f0       ?kkybrd_key_to_ascii@@YADW4KEYCODE@@@Z c00015f0 f   keyboard:kybrd.obj
 0001:00001330       ?i86_kybrd_irq@@YAXXZ      c0001730 f   keyboard:kybrd.obj
 0001:00001510       ?kkybrd_install@@YAXH@Z    c0001910 f   keyboard:kybrd.obj
 0001:00001590       ?flpydsk_initialize_dma@@YAXXZ c0001990 f   floppydisk:flpydsk.obj
 0001:00001600       ?flpydsk_dma_read@@YAXXZ   c0001a00 f   floppydisk:flpydsk.obj
 0001:00001620       ?flpydsk_dma_write@@YAXXZ  c0001a20 f   floppydisk:flpydsk.obj
 0001:00001640       ?flpydsk_read_status@@YAEXZ c0001a40 f   floppydisk:flpydsk.obj
 0001:00001650       ?flpydsk_write_dor@@YAXE@Z c0001a50 f   floppydisk:flpydsk.obj
 0001:00001670       ?flpydsk_send_command@@YAXE@Z c0001a70 f   floppydisk:flpydsk.obj
 0001:000016b0       ?flpydsk_read_data@@YAEXZ  c0001ab0 f   floppydisk:flpydsk.obj
 0001:000016f0       ?flpydsk_write_ccr@@YAXE@Z c0001af0 f   floppydisk:flpydsk.obj
 0001:00001710       ?i86_flpy_irq@@YAXXZ       c0001b10 f   floppydisk:flpydsk.obj
 0001:00001730       ?flpydsk_check_int@@YAXPAI0@Z c0001b30 f   floppydisk:flpydsk.obj
 0001:00001760       ?flpydsk_control_motor@@YAX_N@Z c0001b60 f   floppydisk:flpydsk.obj
 0001:000017d0       ?flpydsk_drive_data@@YAXIII_N@Z c0001bd0 f   floppydisk:flpydsk.obj
 0001:00001810       ?flpydsk_calibrate@@YAHI@Z c0001c10 f   floppydisk:flpydsk.obj
 0001:000019e0       ?flpydsk_disable_controller@@YAXXZ c0001de0 f   floppydisk:flpydsk.obj
 0001:000019f0       ?flpydsk_enable_controller@@YAXXZ c0001df0 f   floppydisk:flpydsk.obj
 0001:00001a00       ?flpydsk_reset@@YAXXZ      c0001e00 f   floppydisk:flpydsk.obj
 0001:00001ba0       ?flpydsk_read_sector_imp@@YAXEEE@Z c0001fa0 f   floppydisk:flpydsk.obj
 0001:00001d10       ?flpydsk_seek@@YAHII@Z     c0002110 f   floppydisk:flpydsk.obj
 0001:00001eb0       ?flpydsk_lba_to_chs@@YAXHPAH00@Z c00022b0 f   floppydisk:flpydsk.obj
 0001:00001f20       ?flpydsk_install@@YAXH@Z   c0002320 f   floppydisk:flpydsk.obj
 0001:00001f60       ?flpydsk_set_working_drive@@YAXE@Z c0002360 f   floppydisk:flpydsk.obj
 0001:00001f70       ?flpydsk_get_working_drive@@YAEXZ c0002370 f   floppydisk:flpydsk.obj
 0001:00001f80       ?flpydsk_read_sector@@YAPAEH@Z c0002380 f   floppydisk:flpydsk.obj
 0001:00002080       ?Exit@@YAXXZ               c0002480 f   lib:cstd.obj
 0001:000020c0       ?InitializeConstructors@@YAXXZ c00024c0 f   lib:cstd.obj
 0001:00002100       ?strtol@@YAJPBDPAPADH@Z    c0002500 f   lib:stdio.obj
 0001:00002260       ?atoi@@YAHPBD@Z            c0002660 f   lib:stdio.obj
 0001:00002280       ?strcmp@@YAHPBD0@Z         c0002680 f   lib:string.obj
 0001:000022c0       ?strcpy@@YAPADPADPBD@Z     c00026c0 f   lib:string.obj
 0001:000022e0       ?strlen@@YAIPBD@Z          c00026e0 f   lib:string.obj
 0001:00002300       ?memset@@YAPAXPAXDI@Z      c0002700 f   lib:string.obj
 0001:00002320       ?hal_shutdown@@YAHXZ       c0002720 f   hal:Hal.obj
 0001:00002330       ?geninterrupt@@YAXH@Z      c0002730 f   hal:Hal.obj
 0001:00002350       ?inportb@@YAEG@Z           c0002750 f   hal:Hal.obj
 0001:00002360       ?outportb@@YAXGE@Z         c0002760 f   hal:Hal.obj
 0001:00002370       ?enable@@YAXXZ             c0002770 f   hal:Hal.obj
 0001:00002380       ?disable@@YAXXZ            c0002780 f   hal:Hal.obj
 0001:00002390       ?setvect@@YAXHA6AXXZ@Z     c0002790 f   hal:Hal.obj
 0001:000023b0       ?getvect@@YAP6AXXZH@Z      c00027b0 f   hal:Hal.obj
 0001:000023e0       ?get_cpu_vender@@YAPBDXZ   c00027e0 f   hal:Hal.obj
 0001:000023f0       ?get_tick_count@@YAHXZ     c00027f0 f   hal:Hal.obj
 0001:00002400       ?hal_initialize@@YAHXZ     c0002800 f   hal:Hal.obj
 0001:00002430       ?sound@@YAXI@Z             c0002830 f   hal:Hal.obj
 0001:00002450       ?interruptdone@@YAXI@Z     c0002850 f i hal:Hal.obj
 0001:00002480       ?i86_cpu_initialize@@YAHXZ c0002880 f   hal:cpu.obj
 0001:000024a0       ?i86_cpu_shutdown@@YAXXZ   c00028a0 f   hal:cpu.obj
 0001:000024b0       ?i86_cpu_get_vender@@YAPADXZ c00028b0 f   hal:cpu.obj
 0001:000024e0       ?i86_cpu_flush_caches@@YAXXZ c00028e0 f   hal:cpu.obj
 0001:000024f0       ?i86_cpu_flush_caches_write@@YAXXZ c00028f0 f   hal:cpu.obj
 0001:00002500       ?i86_cpu_flush_tlb_entry@@YAXI@Z c0002900 f   hal:cpu.obj
 0001:00002510       ?i86_pic_send_command@@YAXEE@Z c0002910 f i hal:pic.obj
 0001:00002540       ?i86_pic_initialize@@YAXEE@Z c0002940 f   hal:pic.obj
 0001:000025d0       ?i86_get_ir@@YAPAUidt_descriptor@@I@Z c00029d0 f   hal:idt.obj
 0001:000025f0       ?i86_install_ir@@YAHIGGP6AXXZ@Z c00029f0 f   hal:idt.obj
 0001:00002640       ?i86_idt_initialize@@YAHG@Z c0002a40 f   hal:idt.obj
 0001:000026d0       ?i86_pit_irq@@YAXXZ        c0002ad0 f   hal:pit.obj
 0001:000026f0       ?i86_pit_set_tick_count@@YAII@Z c0002af0 f   hal:pit.obj
 0001:00002700       ?i86_pit_get_tick_count@@YAIXZ c0002b00 f   hal:pit.obj
 0001:00002710       ?i86_pit_send_command@@YAXE@Z c0002b10 f   hal:pit.obj
 0001:00002720       ?i86_pit_send_data@@YAXGE@Z c0002b20 f   hal:pit.obj
 0001:00002760       ?i86_pit_read_data@@YAEG@Z c0002b60 f   hal:pit.obj
 0001:00002790       ?i86_pit_start_counter@@YAXIEE@Z c0002b90 f   hal:pit.obj
 0001:000027f0       ?i86_pit_initialize@@YAXXZ c0002bf0 f   hal:pit.obj
 0001:00002810       ?i86_pit_is_initialized@@YA_NXZ c0002c10 f   hal:pit.obj
 0001:00002830       ?gdt_set_descriptor@@YAXI_K0EE@Z c0002c30 f   hal:gdt.obj
 0001:000028c0       ?i86_gdt_get_descriptor@@YAPAUgdt_descriptor@@H@Z c0002cc0 f   hal:gdt.obj
 0001:000028e0       ?i86_gdt_initialize@@YAHXZ c0002ce0 f   hal:gdt.obj
 0002:00000000       ??_C@_0DB@CDMKGOAJ@?6kernel_entry?3?5shutdown?5complete@ c0002e00     entry.obj
 0002:00000034       ??_C@_0L@MLJAOFLB@?6Command?$DO?5?$AA@ c0002e34     main.obj
 0002:00000040       ??_C@_0CF@JJECCION@?6?$AN?$CK?$CK?$CK?5Error?5reading?5sector?5from?5@ c0002e40     main.obj
 0002:00000068       ??_C@_07HLIDHFKP@?6?$ANDone?4?$AA@ c0002e68     main.obj
 0002:00000070       ??_C@_0BO@OEDGIEJ@?6?$ANPress?5any?5key?5to?5continue?6?$AN?$AA@ c0002e70     main.obj
 0002:00000090       ??_C@_05NLGPLALJ@0x?$CFx?5?$AA@ c0002e90     main.obj
 0002:00000098       ??_C@_0BJ@ECMCOPFG@?6?$ANSector?5?$CFi?5contents?3?6?6?$AN?$AA@ c0002e98     main.obj
 0002:000000b4       ??_C@_0DE@DFEJCBIF@?6?$ANPlease?5type?5in?5the?5sector?5numb@ c0002eb4     main.obj
 0002:000000e8       ??_C@_0BA@CIFAFMB@?6Unkown?5command?$AA@ c0002ee8     main.obj
 0002:000000f8       ??_C@_04POLDLDMI@read?$AA@ c0002ef8     main.obj
 0002:00000100       ??_C@_0DG@ELCNPNPM@?5?9?5reset?3?5Resets?5and?5recalibrate@ c0002f00     main.obj
 0002:00000138       ??_C@_0DJ@GPHPHACD@?5?9?5read?3?5reads?5a?5specific?5sector@ c0002f38     main.obj
 0002:00000174       ??_C@_0CA@LKFEMAAC@?5?9?5help?3?5displays?5this?5message?6?$AA@ c0002f74     main.obj
 0002:00000194       ??_C@_0BM@JJGNGCAH@?5?9?5cls?3?5clears?5the?5display?6?$AA@ c0002f94     main.obj
 0002:000001b0       ??_C@_0CF@IDBIJBJM@?5?9?5exit?3?5quits?5and?5halts?5the?5sys@ c0002fb0     main.obj
 0002:000001d8       ??_C@_0BF@EGIGJNNM@Supported?5commands?3?6?$AA@ c0002fd8     main.obj
 0002:000001f0       ??_C@_0CI@GDADPPEK@?6OS?5Development?5Series?5Floppy?5Di@ c0002ff0     main.obj
 0002:00000218       ??_C@_04PCJFHION@help?$AA@ c0003018     main.obj
 0002:00000220       ??_C@_03LCPHGAHP@cls?$AA@  c0003020     main.obj
 0002:00000224       ??_C@_04MKNBDEPB@exit?$AA@ c0003024     main.obj
 0002:0000022c       ??_C@_0CE@DNKFOACM@?6Exit?5command?5recieved?$DL?5demo?5hal@ c000302c     main.obj
 0002:00000250       ??_C@_0DL@FPFEFPFC@?$CL?9?9?9?9?9?9?9?9?9?9?9?9?9?9?9?9?9?9?9?9?9?9?9?9?9?9?9?9?9?9?9@ c0003050     main.obj
 0002:0000028c       ??_C@_0DF@BBBHLI@?6Type?5?$CCexit?$CC?5to?5quit?0?5?$CChelp?$CC?5for@ c000308c     main.obj
 0002:000002c4       ??_C@_0CC@MBECBMIB@OSDev?5Series?5FDC?5Programming?5Dem@ c00030c4     main.obj
 0002:000002e8       ??_C@_0EG@EFLEAAGH@Divide?5by?50?5at?5physical?5address?5@ c00030e8     exception.obj
 0002:00000330       ??_C@_0M@HBBAMPBG@Single?5step?$AA@ c0003130     exception.obj
 0002:0000033c       ??_C@_08MAEPCHJN@NMI?5trap?$AA@ c000313c     exception.obj
 0002:00000348       ??_C@_0BA@MJDBKJBI@Breakpoint?5trap?$AA@ c0003148     exception.obj
 0002:00000358       ??_C@_0O@NPIPDPLG@Overflow?5trap?$AA@ c0003158     exception.obj
 0002:00000368       ??_C@_0BD@OAFDEGEK@Bounds?5check?5fault?$AA@ c0003168     exception.obj
 0002:0000037c       ??_C@_0P@GJJPHHDN@Invalid?5opcode?$AA@ c000317c     exception.obj
 0002:0000038c       ??_C@_0BB@KJJKIIDM@Device?5not?5found?$AA@ c000318c     exception.obj
 0002:000003a0       ??_C@_0N@EMHPBCJE@Double?5fault?$AA@ c00031a0     exception.obj
 0002:000003b0       ??_C@_0M@OLMALBPG@Invalid?5TSS?$AA@ c00031b0     exception.obj
 0002:000003bc       ??_C@_0BA@FIBIGBGL@Invalid?5segment?$AA@ c00031bc     exception.obj
 0002:000003cc       ??_C@_0M@LEEDKLOB@Stack?5fault?$AA@ c00031cc     exception.obj
 0002:000003d8       ??_C@_0BJ@JKJOCMHH@General?5Protection?5Fault?$AA@ c00031d8     exception.obj
 0002:000003f4       ??_C@_09ENEAMLC@FPU?5Fault?$AA@ c00031f4     exception.obj
 0002:00000400       ??_C@_0BA@DLJHEABO@Alignment?5Check?$AA@ c0003200     exception.obj
 0002:00000410       ??_C@_0O@LALCKNGJ@Machine?5Check?$AA@ c0003210     exception.obj
 0002:00000420       ??_C@_0P@JHGCNKG@FPU?5SIMD?5fault?$AA@ c0003220     exception.obj
 0002:00000430       ??_C@_0BJE@DIIIEOKN@?5?5?5?5?5?5?5?5?5?5?5?5?5?5?5?5?5?5?5?5?5?5?5?5?5?5?5?5?5?5?5?5@ c0003230     panic.obj
 0002:000005c4       ??_C@_0N@PFILFPHL@?$CK?$CK?$CK?5STOP?3?5?$CFs?$AA@ c00033c4     panic.obj
 0002:000005d8       ??_C@_0BCE@IIDFFEFH@We?5apologize?0?5MOS?5has?5encountere@ c00033d8     panic.obj
 0003:00000000       ?__xc_a@@3PAP6AXXZA        c0003600     lib:cstd.obj
 0003:00000004       ?__xc_z@@3PAP6AXXZA        c0003604     lib:cstd.obj
 0003:00000008       ?video_memory@@3PAGA       c0003608     DebugDisplay.obj
 0003:0000000c       ?bchars@@3PADA             c000360c     DebugDisplay.obj
 0003:00000170       __fltused                  c0003770     lib:cstd.obj
 0003:00000178       ?kernelSize@@3IA           c0003778     main.obj
 0003:00000184       ?tbuf@@3PADA               c0003784     DebugDisplay.obj
 0003:000001a4       ?cursor_x@@3EA             c00037a4     DebugDisplay.obj
 0003:000001a5       ?cursor_y@@3EA             c00037a5     DebugDisplay.obj
 0003:000001a6       ?_color@@3EA               c00037a6     DebugDisplay.obj
 0003:000001b8       ?_cur_directory@@3PAUpdirectory@@A c00037b8     mmngr_virtual.obj
 0003:000001bc       ?_cur_pdbr@@3IA            c00037bc     mmngr_virtual.obj

 entry point at        0000:00000000

 Static symbols

 0001:000025b0       ?idt_install@@YAXXZ        c00029b0 f   hal:idt.obj
 0001:000025c0       ?i86_default_handler@@YAXXZ c00029c0 f   hal:idt.obj
 0001:00002820       ?gdt_install@@YAXXZ        c0002c20 f   hal:gdt.obj
